
main:     file format elf32-littleriscv


Disassembly of section .text:

00010074 <register_fini>:
   10074:	li	a5,0
   10078:	beqz	a5,10084 <register_fini+0x10>
   1007a:	lui	a0,0x12
   1007c:	addi	a0,a0,1542 # 12606 <__libc_fini_array>
   10080:	j	1215a <atexit>
   10084:	ret

00010086 <_start>:
   10086:	auipc	gp,0xf
   1008a:	addi	gp,gp,1930 # 1f810 <__global_pointer$>
   1008e:	addi	a0,gp,460 # 1f9dc <__malloc_max_total_mem>
   10092:	addi	a2,gp,552 # 1fa38 <__BSS_END__>
   10096:	sub	a2,a2,a0
   10098:	li	a1,0
   1009a:	jal	101b6 <memset>
   1009c:	auipc	a0,0x2
   100a0:	addi	a0,a0,190 # 1215a <atexit>
   100a4:	beqz	a0,100b2 <_start+0x2c>
   100a6:	auipc	a0,0x2
   100aa:	addi	a0,a0,1376 # 12606 <__libc_fini_array>
   100ae:	jal	ra,1215a <atexit>
   100b2:	jal	10144 <__libc_init_array>
   100b4:	lw	a0,0(sp)
   100b6:	addi	a1,sp,4
   100b8:	li	a2,0
   100ba:	jal	1010a <main>
   100bc:	j	10126 <exit>

000100be <__do_global_dtors_aux>:
   100be:	addi	sp,sp,-16
   100c0:	sw	s0,8(sp)
   100c2:	lbu	a5,484(gp) # 1f9f4 <completed.1>
   100c6:	sw	ra,12(sp)
   100c8:	bnez	a5,100e6 <__do_global_dtors_aux+0x28>
   100ca:	li	a5,0
   100ce:	beqz	a5,100e0 <__do_global_dtors_aux+0x22>
   100d0:	lui	a0,0x1f
   100d4:	mv	a0,a0
   100d8:	auipc	ra,0x0
   100dc:	jalr	zero # 0 <register_fini-0x10074>
   100e0:	li	a5,1
   100e2:	sb	a5,484(gp) # 1f9f4 <completed.1>
   100e6:	lw	ra,12(sp)
   100e8:	lw	s0,8(sp)
   100ea:	addi	sp,sp,16
   100ec:	ret

000100ee <frame_dummy>:
   100ee:	li	a5,0
   100f2:	beqz	a5,10108 <frame_dummy+0x1a>
   100f4:	lui	a0,0x1f
   100f8:	addi	a1,gp,488 # 1f9f8 <object.0>
   100fc:	mv	a0,a0
   10100:	auipc	t1,0x0
   10104:	jr	zero # 0 <register_fini-0x10074>
   10108:	ret

0001010a <main>:
   1010a:	addi	sp,sp,-16
   1010c:	sw	ra,12(sp)
   1010e:	sw	s0,8(sp)
   10110:	addi	s0,sp,16
   10112:	lui	a5,0x1e
   10114:	addi	a0,a5,-1960 # 1d858 <__clzsi2+0x3c>
   10118:	jal	1027e <printf>
   1011a:	li	a5,0
   1011c:	mv	a0,a5
   1011e:	lw	ra,12(sp)
   10120:	lw	s0,8(sp)
   10122:	addi	sp,sp,16
   10124:	ret

00010126 <exit>:
   10126:	addi	sp,sp,-16
   10128:	li	a1,0
   1012a:	sw	s0,8(sp)
   1012c:	sw	ra,12(sp)
   1012e:	mv	s0,a0
   10130:	jal	ra,1209c <__call_exitprocs>
   10134:	lw	a0,440(gp) # 1f9c8 <_global_impure_ptr>
   10138:	lw	a5,60(a0)
   1013a:	beqz	a5,1013e <exit+0x18>
   1013c:	jalr	a5
   1013e:	mv	a0,s0
   10140:	jal	ra,1ae00 <_exit>

00010144 <__libc_init_array>:
   10144:	addi	sp,sp,-16
   10146:	sw	s0,8(sp)
   10148:	sw	s2,0(sp)
   1014a:	lui	s0,0x1f
   1014e:	lui	s2,0x1f
   10152:	addi	a5,s0,4 # 1f004 <__init_array_start>
   10156:	addi	s2,s2,4 # 1f004 <__init_array_start>
   1015a:	sub	s2,s2,a5
   1015e:	sw	ra,12(sp)
   10160:	sw	s1,4(sp)
   10162:	srai	s2,s2,0x2
   10166:	beqz	s2,1017c <__libc_init_array+0x38>
   1016a:	addi	s0,s0,4
   1016e:	li	s1,0
   10170:	lw	a5,0(s0)
   10172:	addi	s1,s1,1
   10174:	addi	s0,s0,4
   10176:	jalr	a5
   10178:	bne	s2,s1,10170 <__libc_init_array+0x2c>
   1017c:	lui	s0,0x1f
   10180:	lui	s2,0x1f
   10184:	addi	a5,s0,4 # 1f004 <__init_array_start>
   10188:	addi	s2,s2,12 # 1f00c <__do_global_dtors_aux_fini_array_entry>
   1018c:	sub	s2,s2,a5
   10190:	srai	s2,s2,0x2
   10194:	beqz	s2,101aa <__libc_init_array+0x66>
   10198:	addi	s0,s0,4
   1019c:	li	s1,0
   1019e:	lw	a5,0(s0)
   101a0:	addi	s1,s1,1
   101a2:	addi	s0,s0,4
   101a4:	jalr	a5
   101a6:	bne	s2,s1,1019e <__libc_init_array+0x5a>
   101aa:	lw	ra,12(sp)
   101ac:	lw	s0,8(sp)
   101ae:	lw	s1,4(sp)
   101b0:	lw	s2,0(sp)
   101b2:	addi	sp,sp,16
   101b4:	ret

000101b6 <memset>:
   101b6:	li	t1,15
   101b8:	mv	a4,a0
   101ba:	bgeu	t1,a2,101e0 <memset+0x2a>
   101be:	andi	a5,a4,15
   101c2:	bnez	a5,10240 <memset+0x8a>
   101c4:	bnez	a1,1022e <memset+0x78>
   101c6:	andi	a3,a2,-16
   101ca:	andi	a2,a2,15
   101cc:	add	a3,a3,a4
   101ce:	sw	a1,0(a4)
   101d0:	sw	a1,4(a4)
   101d2:	sw	a1,8(a4)
   101d4:	sw	a1,12(a4)
   101d6:	addi	a4,a4,16
   101d8:	bltu	a4,a3,101ce <memset+0x18>
   101dc:	bnez	a2,101e0 <memset+0x2a>
   101de:	ret
   101e0:	sub	a3,t1,a2
   101e4:	slli	a3,a3,0x2
   101e6:	auipc	t0,0x0
   101ea:	add	a3,a3,t0
   101ec:	jr	10(a3)
   101f0:	sb	a1,14(a4)
   101f4:	sb	a1,13(a4)
   101f8:	sb	a1,12(a4)
   101fc:	sb	a1,11(a4)
   10200:	sb	a1,10(a4)
   10204:	sb	a1,9(a4)
   10208:	sb	a1,8(a4)
   1020c:	sb	a1,7(a4)
   10210:	sb	a1,6(a4)
   10214:	sb	a1,5(a4)
   10218:	sb	a1,4(a4)
   1021c:	sb	a1,3(a4)
   10220:	sb	a1,2(a4)
   10224:	sb	a1,1(a4)
   10228:	sb	a1,0(a4)
   1022c:	ret
   1022e:	zext.b	a1,a1
   10232:	slli	a3,a1,0x8
   10236:	or	a1,a1,a3
   10238:	slli	a3,a1,0x10
   1023c:	or	a1,a1,a3
   1023e:	j	101c6 <memset+0x10>
   10240:	slli	a3,a5,0x2
   10244:	auipc	t0,0x0
   10248:	add	a3,a3,t0
   1024a:	mv	t0,ra
   1024c:	jalr	-88(a3)
   10250:	mv	ra,t0
   10252:	addi	a5,a5,-16
   10254:	sub	a4,a4,a5
   10256:	add	a2,a2,a5
   10258:	bgeu	t1,a2,101e0 <memset+0x2a>
   1025c:	j	101c4 <memset+0xe>

0001025e <_printf_r>:
   1025e:	addi	sp,sp,-64
   10260:	sw	a2,40(sp)
   10262:	sw	a3,44(sp)
   10264:	sw	a4,48(sp)
   10266:	sw	a5,52(sp)
   10268:	sw	a6,56(sp)
   1026a:	sw	a7,60(sp)
   1026c:	mv	a2,a1
   1026e:	lw	a1,8(a0)
   10270:	addi	a3,sp,40
   10272:	sw	ra,28(sp)
   10274:	sw	a3,12(sp)
   10276:	jal	102a8 <_vfprintf_r>
   10278:	lw	ra,28(sp)
   1027a:	addi	sp,sp,64
   1027c:	ret

0001027e <printf>:
   1027e:	lw	t1,448(gp) # 1f9d0 <_impure_ptr>
   10282:	addi	sp,sp,-64
   10284:	sw	a2,40(sp)
   10286:	sw	a3,44(sp)
   10288:	sw	a1,36(sp)
   1028a:	sw	a4,48(sp)
   1028c:	sw	a5,52(sp)
   1028e:	sw	a6,56(sp)
   10290:	sw	a7,60(sp)
   10292:	lw	a1,8(t1) # 10108 <frame_dummy+0x1a>
   10296:	addi	a3,sp,36
   10298:	mv	a2,a0
   1029a:	mv	a0,t1
   1029c:	sw	ra,28(sp)
   1029e:	sw	a3,12(sp)
   102a0:	jal	102a8 <_vfprintf_r>
   102a2:	lw	ra,28(sp)
   102a4:	addi	sp,sp,64
   102a6:	ret

000102a8 <_vfprintf_r>:
   102a8:	addi	sp,sp,-496
   102aa:	sw	ra,492(sp)
   102ae:	sw	s4,472(sp)
   102b2:	sw	s5,468(sp)
   102b6:	sw	s10,448(sp)
   102ba:	mv	s4,a1
   102bc:	mv	s10,a2
   102be:	sw	a3,12(sp)
   102c0:	sw	s0,488(sp)
   102c4:	sw	s1,484(sp)
   102c8:	sw	s2,480(sp)
   102cc:	sw	s3,476(sp)
   102d0:	sw	s6,464(sp)
   102d4:	sw	s7,460(sp)
   102d8:	sw	s8,456(sp)
   102dc:	sw	s9,452(sp)
   102e0:	sw	s11,444(sp)
   102e4:	mv	s5,a0
   102e6:	jal	ra,149c6 <_localeconv_r>
   102ea:	lw	a5,0(a0)
   102ec:	mv	a0,a5
   102ee:	sw	a5,64(sp)
   102f0:	jal	ra,15ff0 <strlen>
   102f4:	sw	a0,60(sp)
   102f6:	sw	zero,240(sp)
   102f8:	sw	zero,244(sp)
   102fa:	sw	zero,248(sp)
   102fc:	sw	zero,252(sp)
   102fe:	beqz	s5,1030a <_vfprintf_r+0x62>
   10302:	lw	a4,56(s5)
   10306:	beqz	a4,10966 <_vfprintf_r+0x6be>
   1030a:	lh	a3,12(s4)
   1030e:	lui	a2,0x2
   10310:	slli	a4,a3,0x10
   10314:	srli	a4,a4,0x10
   10316:	and	a1,a4,a2
   1031a:	bnez	a1,1033a <_vfprintf_r+0x92>
   1031c:	lw	a1,100(s4)
   10320:	or	a4,a3,a2
   10324:	slli	a4,a4,0x10
   10326:	lui	a3,0xffffe
   10328:	srai	a4,a4,0x10
   1032a:	addi	a3,a3,-1
   1032c:	and	a3,a3,a1
   1032e:	sh	a4,12(s4)
   10332:	slli	a4,a4,0x10
   10334:	sw	a3,100(s4)
   10338:	srli	a4,a4,0x10
   1033a:	andi	a3,a4,8
   1033e:	beqz	a3,10558 <_vfprintf_r+0x2b0>
   10342:	lw	a3,16(s4)
   10346:	beqz	a3,10558 <_vfprintf_r+0x2b0>
   1034a:	andi	a4,a4,26
   1034c:	li	a3,10
   1034e:	beq	a4,a3,10572 <_vfprintf_r+0x2ca>
   10352:	lui	a4,0x1e
   10354:	addi	a5,a4,-1876 # 1d8ac <__clzsi2+0x90>
   10358:	lbu	a4,0(s10)
   1035c:	addi	s6,sp,268
   10360:	lui	s2,0x1e
   10362:	sw	s6,228(sp)
   10364:	sw	zero,236(sp)
   10366:	sw	zero,232(sp)
   10368:	sw	zero,16(sp)
   1036a:	sw	zero,24(sp)
   1036c:	sw	zero,68(sp)
   1036e:	sw	zero,56(sp)
   10370:	sw	zero,72(sp)
   10372:	sw	zero,76(sp)
   10374:	sw	zero,4(sp)
   10376:	sw	a5,20(sp)
   10378:	mv	a7,s6
   1037a:	addi	s2,s2,-1344 # 1dac0 <zeroes.0>
   1037e:	beqz	a4,10508 <_vfprintf_r+0x260>
   10382:	mv	s0,s10
   10384:	li	a3,37
   10388:	beq	a4,a3,10684 <_vfprintf_r+0x3dc>
   1038c:	lbu	a4,1(s0)
   10390:	addi	s0,s0,1
   10392:	bnez	a4,10388 <_vfprintf_r+0xe0>
   10394:	sub	s1,s0,s10
   10398:	beq	s0,s10,10508 <_vfprintf_r+0x260>
   1039c:	lw	a3,236(sp)
   1039e:	lw	a4,232(sp)
   103a0:	sw	s10,0(a7)
   103a4:	add	a3,a3,s1
   103a6:	addi	a4,a4,1
   103a8:	sw	s1,4(a7)
   103ac:	sw	a3,236(sp)
   103ae:	sw	a4,232(sp)
   103b0:	li	a3,7
   103b2:	addi	a7,a7,8
   103b4:	blt	a3,a4,10692 <_vfprintf_r+0x3ea>
   103b8:	lw	a5,4(sp)
   103ba:	lbu	a4,0(s0)
   103be:	add	a5,a5,s1
   103c0:	sw	a5,4(sp)
   103c2:	beqz	a4,10508 <_vfprintf_r+0x260>
   103c6:	lbu	t3,1(s0)
   103ca:	sb	zero,199(sp)
   103ce:	addi	s0,s0,1
   103d0:	li	t1,-1
   103d2:	li	s3,0
   103d4:	li	s1,0
   103d6:	li	s7,90
   103da:	li	s9,9
   103dc:	li	s11,42
   103e0:	addi	s0,s0,1
   103e2:	mv	s8,t3
   103e4:	addi	a4,s8,-32
   103e8:	bltu	s7,a4,1041e <_vfprintf_r+0x176>
   103ec:	lw	a5,20(sp)
   103ee:	slli	a4,a4,0x2
   103f0:	add	a4,a4,a5
   103f2:	lw	a4,0(a4)
   103f4:	jr	a4
   103f6:	li	s3,0
   103f8:	addi	a4,s8,-48
   103fc:	lbu	s8,0(s0)
   10400:	slli	a3,s3,0x2
   10404:	add	a3,a3,s3
   10406:	slli	a3,a3,0x1
   10408:	add	s3,a4,a3
   1040c:	addi	a4,s8,-48
   10410:	addi	s0,s0,1
   10412:	bgeu	s9,a4,103fc <_vfprintf_r+0x154>
   10416:	addi	a4,s8,-32
   1041a:	bgeu	s7,a4,103ec <_vfprintf_r+0x144>
   1041e:	beqz	s8,10508 <_vfprintf_r+0x260>
   10422:	sb	s8,332(sp)
   10426:	sb	zero,199(sp)
   1042a:	li	s7,1
   1042c:	li	s9,1
   1042e:	addi	s10,sp,332
   10432:	li	s11,0
   10434:	li	t1,0
   10436:	sw	zero,48(sp)
   10438:	sw	zero,52(sp)
   1043a:	sw	zero,44(sp)
   1043c:	andi	t0,s1,2
   10440:	beqz	t0,10446 <_vfprintf_r+0x19e>
   10444:	addi	s7,s7,2
   10446:	andi	t6,s1,132
   1044a:	lw	a4,236(sp)
   1044c:	bnez	t6,10458 <_vfprintf_r+0x1b0>
   10450:	sub	a6,s3,s7
   10454:	bgtz	a6,10d5c <_vfprintf_r+0xab4>
   10458:	lbu	a3,199(sp)
   1045c:	beqz	a3,1047e <_vfprintf_r+0x1d6>
   1045e:	lw	a3,232(sp)
   10460:	addi	a2,sp,199
   10464:	sw	a2,0(a7)
   10468:	addi	a4,a4,1
   1046a:	li	a2,1
   1046c:	addi	a3,a3,1
   1046e:	sw	a2,4(a7)
   10472:	sw	a4,236(sp)
   10474:	sw	a3,232(sp)
   10476:	li	a2,7
   10478:	addi	a7,a7,8
   1047a:	blt	a2,a3,10746 <_vfprintf_r+0x49e>
   1047e:	beqz	t0,104a0 <_vfprintf_r+0x1f8>
   10482:	lw	a3,232(sp)
   10484:	addi	a2,sp,200
   10486:	sw	a2,0(a7)
   1048a:	addi	a4,a4,2
   1048c:	li	a2,2
   1048e:	addi	a3,a3,1
   10490:	sw	a2,4(a7)
   10494:	sw	a4,236(sp)
   10496:	sw	a3,232(sp)
   10498:	li	a2,7
   1049a:	addi	a7,a7,8
   1049c:	blt	a2,a3,10df4 <_vfprintf_r+0xb4c>
   104a0:	li	a3,128
   104a4:	beq	t6,a3,10c3e <_vfprintf_r+0x996>
   104a8:	sub	t1,t1,s9
   104ac:	bgtz	t1,10cc4 <_vfprintf_r+0xa1c>
   104b0:	andi	a3,s1,256
   104b4:	bnez	a3,10b78 <_vfprintf_r+0x8d0>
   104b8:	lw	a5,232(sp)
   104ba:	add	a4,a4,s9
   104bc:	sw	s10,0(a7)
   104c0:	addi	a5,a5,1
   104c2:	sw	s9,4(a7)
   104c6:	sw	a4,236(sp)
   104c8:	sw	a5,232(sp)
   104ca:	li	a3,7
   104cc:	blt	a3,a5,10810 <_vfprintf_r+0x568>
   104d0:	addi	a7,a7,8
   104d2:	andi	s1,s1,4
   104d4:	beqz	s1,104de <_vfprintf_r+0x236>
   104d6:	sub	s1,s3,s7
   104da:	bgtz	s1,10824 <_vfprintf_r+0x57c>
   104de:	bge	s3,s7,104e4 <_vfprintf_r+0x23c>
   104e2:	mv	s3,s7
   104e4:	lw	a5,4(sp)
   104e6:	add	a5,a5,s3
   104e8:	sw	a5,4(sp)
   104ea:	bnez	a4,10d3a <_vfprintf_r+0xa92>
   104ee:	sw	zero,232(sp)
   104f0:	beqz	s11,104fc <_vfprintf_r+0x254>
   104f4:	mv	a1,s11
   104f6:	mv	a0,s5
   104f8:	jal	ra,12706 <_free_r>
   104fc:	mv	a7,s6
   104fe:	mv	s10,s0
   10500:	lbu	a4,0(s10)
   10504:	bnez	a4,10382 <_vfprintf_r+0xda>
   10508:	lw	a5,236(sp)
   1050a:	beqz	a5,10510 <_vfprintf_r+0x268>
   1050c:	j	11872 <_vfprintf_r+0x15ca>
   10510:	lhu	a5,12(s4)
   10514:	andi	a5,a5,64
   10518:	beqz	a5,1051e <_vfprintf_r+0x276>
   1051a:	j	11c70 <_vfprintf_r+0x19c8>
   1051e:	lw	ra,492(sp)
   10522:	lw	s0,488(sp)
   10526:	lw	a0,4(sp)
   10528:	lw	s1,484(sp)
   1052c:	lw	s2,480(sp)
   10530:	lw	s3,476(sp)
   10534:	lw	s4,472(sp)
   10538:	lw	s5,468(sp)
   1053c:	lw	s6,464(sp)
   10540:	lw	s7,460(sp)
   10544:	lw	s8,456(sp)
   10548:	lw	s9,452(sp)
   1054c:	lw	s10,448(sp)
   10550:	lw	s11,444(sp)
   10554:	addi	sp,sp,496
   10556:	ret
   10558:	mv	a1,s4
   1055a:	mv	a0,s5
   1055c:	jal	ra,11fa8 <__swsetup_r>
   10560:	beqz	a0,10566 <_vfprintf_r+0x2be>
   10562:	j	11c70 <_vfprintf_r+0x19c8>
   10566:	lhu	a4,12(s4)
   1056a:	li	a3,10
   1056c:	andi	a4,a4,26
   1056e:	bne	a4,a3,10352 <_vfprintf_r+0xaa>
   10572:	lh	a4,14(s4)
   10576:	bltz	a4,10352 <_vfprintf_r+0xaa>
   1057a:	lw	a3,12(sp)
   1057c:	mv	a2,s10
   1057e:	mv	a1,s4
   10580:	mv	a0,s5
   10582:	jal	ra,11f16 <__sbprintf>
   10586:	sw	a0,4(sp)
   10588:	j	1051e <_vfprintf_r+0x276>
   1058a:	mv	a0,s5
   1058c:	sw	a7,28(sp)
   1058e:	sw	t1,8(sp)
   10590:	jal	ra,149c6 <_localeconv_r>
   10594:	lw	a5,4(a0)
   10596:	mv	a0,a5
   10598:	sw	a5,76(sp)
   1059a:	jal	ra,15ff0 <strlen>
   1059e:	mv	a4,a0
   105a0:	mv	a0,s5
   105a2:	mv	s8,a4
   105a4:	sw	a4,72(sp)
   105a6:	jal	ra,149c6 <_localeconv_r>
   105aa:	lw	a5,8(a0)
   105ac:	lw	t1,8(sp)
   105ae:	lw	a7,28(sp)
   105b0:	sw	a5,56(sp)
   105b2:	bnez	s8,11016 <_vfprintf_r+0xd6e>
   105b6:	lbu	t3,0(s0)
   105ba:	j	103e0 <_vfprintf_r+0x138>
   105bc:	lbu	t3,0(s0)
   105c0:	ori	s1,s1,32
   105c4:	j	103e0 <_vfprintf_r+0x138>
   105c6:	ori	s1,s1,16
   105ca:	andi	a5,s1,32
   105ce:	beqz	a5,108c2 <_vfprintf_r+0x61a>
   105d2:	lw	a5,12(sp)
   105d4:	addi	a5,a5,7
   105d6:	andi	a4,a5,-8
   105da:	lw	a5,4(a4)
   105dc:	lw	s7,0(a4)
   105e0:	addi	a4,a4,8
   105e2:	sw	a4,12(sp)
   105e4:	mv	s9,a5
   105e6:	bltz	a5,108ec <_vfprintf_r+0x644>
   105ea:	li	a5,-1
   105ec:	mv	a4,s1
   105ee:	beq	t1,a5,109e4 <_vfprintf_r+0x73c>
   105f2:	or	a5,s7,s9
   105f6:	andi	a4,s1,-129
   105fa:	bnez	a5,109e4 <_vfprintf_r+0x73c>
   105fe:	bnez	t1,109ee <_vfprintf_r+0x746>
   10602:	mv	s1,a4
   10604:	li	t1,0
   10606:	li	s9,0
   10608:	addi	s10,sp,432
   1060c:	lbu	a4,199(sp)
   10610:	mv	s7,s9
   10612:	bge	s9,t1,10618 <_vfprintf_r+0x370>
   10616:	mv	s7,t1
   10618:	sw	zero,48(sp)
   1061a:	sw	zero,52(sp)
   1061c:	sw	zero,44(sp)
   1061e:	li	s11,0
   10620:	beqz	a4,1043c <_vfprintf_r+0x194>
   10624:	addi	s7,s7,1
   10626:	j	1043c <_vfprintf_r+0x194>
   10628:	ori	s1,s1,16
   1062c:	andi	a5,s1,32
   10630:	beqz	a5,1089e <_vfprintf_r+0x5f6>
   10634:	lw	a5,12(sp)
   10636:	addi	a5,a5,7
   10638:	andi	a5,a5,-8
   1063a:	lw	s7,0(a5)
   1063e:	lw	s9,4(a5)
   10642:	addi	a5,a5,8
   10644:	sw	a5,12(sp)
   10646:	andi	a4,s1,-1025
   1064a:	li	a5,0
   1064c:	li	a3,0
   1064e:	sb	a3,199(sp)
   10652:	li	a3,-1
   10654:	beq	t1,a3,1090e <_vfprintf_r+0x666>
   10658:	or	a3,s7,s9
   1065c:	andi	s1,a4,-129
   10660:	bnez	a3,10d58 <_vfprintf_r+0xab0>
   10664:	bnez	t1,11568 <_vfprintf_r+0x12c0>
   10668:	bnez	a5,10604 <_vfprintf_r+0x35c>
   1066a:	andi	s9,a4,1
   1066e:	addi	s10,sp,432
   10672:	beqz	s9,1060c <_vfprintf_r+0x364>
   10676:	li	a5,48
   1067a:	sb	a5,431(sp)
   1067e:	addi	s10,sp,431
   10682:	j	1060c <_vfprintf_r+0x364>
   10684:	sub	s1,s0,s10
   10688:	bne	s0,s10,1039c <_vfprintf_r+0xf4>
   1068c:	lbu	a4,0(s0)
   10690:	j	103c2 <_vfprintf_r+0x11a>
   10692:	addi	a2,sp,228
   10694:	mv	a1,s4
   10696:	mv	a0,s5
   10698:	jal	ra,17d6a <__sprint_r>
   1069c:	bnez	a0,10510 <_vfprintf_r+0x268>
   106a0:	mv	a7,s6
   106a2:	j	103b8 <_vfprintf_r+0x110>
   106a4:	andi	a4,s1,8
   106a8:	bnez	a4,10fee <_vfprintf_r+0xd46>
   106ac:	lw	a5,12(sp)
   106ae:	addi	a0,sp,176
   106b0:	sw	a7,28(sp)
   106b2:	addi	a5,a5,7
   106b4:	andi	a5,a5,-8
   106b6:	fld	fa0,0(a5)
   106b8:	addi	a5,a5,8
   106ba:	sw	t1,8(sp)
   106bc:	sw	a5,12(sp)
   106be:	jal	ra,1d326 <__extenddftf2>
   106c2:	lw	a1,176(sp)
   106c4:	lw	a2,180(sp)
   106c6:	lw	a3,184(sp)
   106c8:	lw	a4,188(sp)
   106ca:	lw	a7,28(sp)
   106cc:	lw	t1,8(sp)
   106ce:	addi	a0,sp,240
   106d0:	sw	a7,28(sp)
   106d2:	sw	t1,8(sp)
   106d4:	sw	a4,252(sp)
   106d6:	sw	a1,240(sp)
   106d8:	sw	a2,244(sp)
   106da:	sw	a3,248(sp)
   106dc:	jal	ra,14976 <_ldcheck>
   106e0:	sw	a0,204(sp)
   106e2:	li	a4,2
   106e4:	lw	t1,8(sp)
   106e6:	lw	a7,28(sp)
   106e8:	beq	a0,a4,1157a <_vfprintf_r+0x12d2>
   106ec:	li	a4,1
   106ee:	bne	a0,a4,106f6 <_vfprintf_r+0x44e>
   106f2:	j	11660 <_vfprintf_r+0x13b8>
   106f6:	li	a4,97
   106fa:	beq	s8,a4,11116 <_vfprintf_r+0xe6e>
   106fe:	li	a4,65
   10702:	li	a5,88
   10706:	beq	s8,a4,1111a <_vfprintf_r+0xe72>
   1070a:	andi	a5,s8,-33
   1070e:	li	a4,-1
   10710:	sw	a5,100(sp)
   10712:	bne	t1,a4,1071a <_vfprintf_r+0x472>
   10716:	j	11d44 <_vfprintf_r+0x1a9c>
   1071a:	li	a4,71
   1071e:	bne	a5,a4,10726 <_vfprintf_r+0x47e>
   10722:	j	11d36 <_vfprintf_r+0x1a8e>
   10726:	lw	t4,252(sp)
   10728:	sw	s1,104(sp)
   1072a:	lw	t5,240(sp)
   1072c:	lw	t6,244(sp)
   1072e:	lw	t0,248(sp)
   10730:	ori	a4,s1,256
   10734:	bgez	t4,1073c <_vfprintf_r+0x494>
   10738:	j	11880 <_vfprintf_r+0x15d8>
   1073c:	sw	zero,124(sp)
   1073e:	mv	s1,a4
   10740:	li	s11,0
   10742:	j	1115a <_vfprintf_r+0xeb2>
   10746:	addi	a2,sp,228
   10748:	mv	a1,s4
   1074a:	mv	a0,s5
   1074c:	sw	t1,32(sp)
   1074e:	sw	t6,28(sp)
   10750:	sw	t0,8(sp)
   10752:	jal	ra,17d6a <__sprint_r>
   10756:	bnez	a0,10d48 <_vfprintf_r+0xaa0>
   1075a:	lw	a4,236(sp)
   1075c:	lw	t1,32(sp)
   1075e:	lw	t6,28(sp)
   10760:	lw	t0,8(sp)
   10762:	mv	a7,s6
   10764:	j	1047e <_vfprintf_r+0x1d6>
   10766:	lw	s9,232(sp)
   10768:	lw	a5,16(sp)
   1076a:	li	a3,1
   1076c:	sw	s10,0(a7)
   10770:	addi	a4,a4,1
   10772:	addi	s9,s9,1
   10774:	addi	s8,a7,8
   10778:	bge	a3,a5,10f12 <_vfprintf_r+0xc6a>
   1077c:	li	a3,1
   1077e:	sw	a3,4(a7)
   10782:	sw	a4,236(sp)
   10784:	sw	s9,232(sp)
   10786:	li	a3,7
   10788:	blt	a3,s9,11344 <_vfprintf_r+0x109c>
   1078c:	lw	a5,60(sp)
   1078e:	lw	a3,64(sp)
   10790:	addi	s9,s9,1
   10792:	add	a4,a4,a5
   10794:	sw	a3,0(s8)
   10798:	sw	a5,4(s8)
   1079c:	sw	a4,236(sp)
   1079e:	sw	s9,232(sp)
   107a0:	li	a3,7
   107a2:	addi	s8,s8,8
   107a4:	blt	a3,s9,1135c <_vfprintf_r+0x10b4>
   107a8:	lw	a3,240(sp)
   107aa:	addi	a1,sp,160
   107ac:	addi	a0,sp,176
   107ae:	sw	a3,176(sp)
   107b0:	lw	a3,244(sp)
   107b2:	sw	a4,8(sp)
   107b4:	sw	zero,160(sp)
   107b6:	sw	a3,180(sp)
   107b8:	lw	a3,248(sp)
   107ba:	sw	zero,164(sp)
   107bc:	sw	zero,168(sp)
   107be:	sw	a3,184(sp)
   107c0:	lw	a3,252(sp)
   107c2:	sw	zero,172(sp)
   107c4:	sw	a3,188(sp)
   107c6:	jal	ra,1afec <__eqtf2>
   107ca:	lw	a5,16(sp)
   107cc:	lw	a4,8(sp)
   107ce:	addi	a3,a5,-1
   107d2:	beqz	a0,10f3e <_vfprintf_r+0xc96>
   107d6:	addi	a5,s10,1
   107da:	addi	s9,s9,1
   107dc:	add	a4,a4,a3
   107de:	sw	a5,0(s8)
   107e2:	sw	a3,4(s8)
   107e6:	sw	a4,236(sp)
   107e8:	sw	s9,232(sp)
   107ea:	li	a5,7
   107ec:	addi	s8,s8,8
   107ee:	blt	a5,s9,10f28 <_vfprintf_r+0xc80>
   107f2:	lw	a3,68(sp)
   107f4:	addi	a5,sp,212
   107f6:	addi	s9,s9,1
   107f8:	add	a4,a4,a3
   107fa:	sw	a5,0(s8)
   107fe:	sw	a3,4(s8)
   10802:	sw	a4,236(sp)
   10804:	sw	s9,232(sp)
   10806:	li	a5,7
   10808:	addi	a7,s8,8
   1080c:	bge	a5,s9,104d2 <_vfprintf_r+0x22a>
   10810:	addi	a2,sp,228
   10812:	mv	a1,s4
   10814:	mv	a0,s5
   10816:	jal	ra,17d6a <__sprint_r>
   1081a:	bnez	a0,10d48 <_vfprintf_r+0xaa0>
   1081e:	lw	a4,236(sp)
   10820:	mv	a7,s6
   10822:	j	104d2 <_vfprintf_r+0x22a>
   10824:	li	a3,16
   10826:	lw	a5,232(sp)
   10828:	blt	a3,s1,10830 <_vfprintf_r+0x588>
   1082c:	j	11c66 <_vfprintf_r+0x19be>
   10830:	lui	a3,0x1e
   10832:	addi	t4,a3,-1360 # 1dab0 <blanks.1>
   10836:	li	s9,16
   10838:	li	s8,7
   1083a:	j	10842 <_vfprintf_r+0x59a>
   1083c:	addi	s1,s1,-16
   1083e:	bge	s9,s1,10876 <_vfprintf_r+0x5ce>
   10842:	addi	a4,a4,16
   10844:	addi	a5,a5,1
   10846:	sw	t4,0(a7)
   1084a:	sw	s9,4(a7)
   1084e:	sw	a4,236(sp)
   10850:	sw	a5,232(sp)
   10852:	addi	a7,a7,8
   10854:	bge	s8,a5,1083c <_vfprintf_r+0x594>
   10858:	addi	a2,sp,228
   1085a:	mv	a1,s4
   1085c:	mv	a0,s5
   1085e:	sw	t4,8(sp)
   10860:	jal	ra,17d6a <__sprint_r>
   10864:	bnez	a0,10d48 <_vfprintf_r+0xaa0>
   10868:	addi	s1,s1,-16
   1086a:	lw	a4,236(sp)
   1086c:	lw	a5,232(sp)
   1086e:	lw	t4,8(sp)
   10870:	mv	a7,s6
   10872:	blt	s9,s1,10842 <_vfprintf_r+0x59a>
   10876:	add	a4,a4,s1
   10878:	addi	a5,a5,1
   1087a:	sw	t4,0(a7)
   1087e:	sw	s1,4(a7)
   10882:	sw	a4,236(sp)
   10884:	sw	a5,232(sp)
   10886:	li	a3,7
   10888:	bge	a3,a5,104de <_vfprintf_r+0x236>
   1088c:	addi	a2,sp,228
   1088e:	mv	a1,s4
   10890:	mv	a0,s5
   10892:	jal	ra,17d6a <__sprint_r>
   10896:	bnez	a0,10d48 <_vfprintf_r+0xaa0>
   1089a:	lw	a4,236(sp)
   1089c:	j	104de <_vfprintf_r+0x236>
   1089e:	lw	a4,12(sp)
   108a0:	andi	a5,s1,16
   108a4:	lw	s7,0(a4)
   108a8:	addi	a4,a4,4
   108aa:	sw	a4,12(sp)
   108ac:	bnez	a5,10fe8 <_vfprintf_r+0xd40>
   108b0:	andi	a5,s1,64
   108b4:	beqz	a5,10fe0 <_vfprintf_r+0xd38>
   108b8:	slli	s7,s7,0x10
   108ba:	srli	s7,s7,0x10
   108be:	li	s9,0
   108c0:	j	10646 <_vfprintf_r+0x39e>
   108c2:	lw	a4,12(sp)
   108c4:	andi	a5,s1,16
   108c8:	lw	s7,0(a4)
   108cc:	addi	a4,a4,4
   108ce:	sw	a4,12(sp)
   108d0:	bnez	a5,10fd6 <_vfprintf_r+0xd2e>
   108d4:	andi	a5,s1,64
   108d8:	beqz	a5,10fce <_vfprintf_r+0xd26>
   108dc:	slli	s7,s7,0x10
   108de:	srai	s7,s7,0x10
   108e2:	srai	s9,s7,0x1f
   108e6:	mv	a5,s9
   108e8:	bgez	a5,105ea <_vfprintf_r+0x342>
   108ec:	li	a3,45
   108f0:	snez	a5,s7
   108f4:	neg	s9,s9
   108f8:	sb	a3,199(sp)
   108fc:	li	a3,-1
   108fe:	sub	s9,s9,a5
   10902:	neg	s7,s7
   10906:	mv	a4,s1
   10908:	li	a5,1
   1090a:	bne	t1,a3,10658 <_vfprintf_r+0x3b0>
   1090e:	li	a3,1
   10910:	beq	a5,a3,109e4 <_vfprintf_r+0x73c>
   10914:	li	a3,2
   10916:	beq	a5,a3,10b42 <_vfprintf_r+0x89a>
   1091a:	addi	s10,sp,432
   1091e:	slli	a2,s9,0x1d
   10922:	andi	a3,s7,7
   10926:	srli	s7,s7,0x3
   1092a:	addi	a3,a3,48
   1092e:	or	s7,a2,s7
   10932:	srli	s9,s9,0x3
   10936:	sb	a3,-1(s10)
   1093a:	or	a2,s7,s9
   1093e:	mv	a1,s10
   10940:	addi	s10,s10,-1
   10942:	bnez	a2,1091e <_vfprintf_r+0x676>
   10944:	andi	a2,a4,1
   10948:	beqz	a2,10b6e <_vfprintf_r+0x8c6>
   1094c:	li	a2,48
   10950:	beq	a3,a2,10b6e <_vfprintf_r+0x8c6>
   10954:	addi	a1,a1,-2
   10956:	addi	a5,sp,432
   10958:	sb	a2,-1(s10)
   1095c:	sub	s9,a5,a1
   10960:	mv	s1,a4
   10962:	mv	s10,a1
   10964:	j	1060c <_vfprintf_r+0x364>
   10966:	mv	a0,s5
   10968:	jal	ra,125de <__sinit>
   1096c:	j	1030a <_vfprintf_r+0x62>
   1096e:	lw	a4,12(sp)
   10970:	sb	zero,199(sp)
   10974:	li	s7,1
   10976:	lw	a5,0(a4)
   10978:	addi	a4,a4,4
   1097a:	sw	a4,12(sp)
   1097c:	sb	a5,332(sp)
   10980:	li	s9,1
   10982:	addi	s10,sp,332
   10986:	j	10432 <_vfprintf_r+0x18a>
   10988:	lw	a5,12(sp)
   1098a:	sb	zero,199(sp)
   1098e:	lw	s10,0(a5)
   10992:	addi	a3,a5,4
   10996:	beqz	s10,110be <_vfprintf_r+0xe16>
   1099a:	li	a4,-1
   1099c:	beq	t1,a4,1162e <_vfprintf_r+0x1386>
   109a0:	mv	a2,t1
   109a2:	li	a1,0
   109a4:	mv	a0,s10
   109a6:	sw	a3,28(sp)
   109a8:	sw	a7,12(sp)
   109aa:	sw	t1,8(sp)
   109ac:	jal	ra,1510c <memchr>
   109b0:	lw	t1,8(sp)
   109b2:	lw	a7,12(sp)
   109b4:	lw	a3,28(sp)
   109b6:	mv	s11,a0
   109b8:	bnez	a0,109be <_vfprintf_r+0x716>
   109ba:	j	11b9a <_vfprintf_r+0x18f2>
   109be:	sub	s9,a0,s10
   109c2:	lbu	a4,199(sp)
   109c6:	not	s7,s9
   109ca:	srai	s7,s7,0x1f
   109ce:	sw	a3,12(sp)
   109d0:	sw	zero,48(sp)
   109d2:	sw	zero,52(sp)
   109d4:	sw	zero,44(sp)
   109d6:	and	s7,s9,s7
   109da:	li	s11,0
   109dc:	li	t1,0
   109de:	bnez	a4,10624 <_vfprintf_r+0x37c>
   109e2:	j	1043c <_vfprintf_r+0x194>
   109e4:	bnez	s9,11380 <_vfprintf_r+0x10d8>
   109e8:	li	a5,9
   109ea:	bltu	a5,s7,11380 <_vfprintf_r+0x10d8>
   109ee:	addi	s7,s7,48
   109f2:	sb	s7,431(sp)
   109f6:	mv	s1,a4
   109f8:	li	s9,1
   109fa:	addi	s10,sp,431
   109fe:	j	1060c <_vfprintf_r+0x364>
   10a00:	lw	a5,12(sp)
   10a02:	lw	s3,0(a5)
   10a06:	addi	s8,a5,4
   10a0a:	bgez	s3,10fb2 <_vfprintf_r+0xd0a>
   10a0e:	neg	s3,s3
   10a12:	sw	s8,12(sp)
   10a14:	lbu	t3,0(s0)
   10a18:	ori	s1,s1,4
   10a1c:	j	103e0 <_vfprintf_r+0x138>
   10a1e:	li	a4,43
   10a22:	lbu	t3,0(s0)
   10a26:	sb	a4,199(sp)
   10a2a:	j	103e0 <_vfprintf_r+0x138>
   10a2c:	lbu	t3,0(s0)
   10a30:	ori	s1,s1,128
   10a34:	j	103e0 <_vfprintf_r+0x138>
   10a36:	lbu	s8,0(s0)
   10a3a:	addi	a3,s0,1
   10a3e:	bne	s8,s11,10a46 <_vfprintf_r+0x79e>
   10a42:	j	11eda <_vfprintf_r+0x1c32>
   10a46:	addi	a4,s8,-48
   10a4a:	mv	s0,a3
   10a4c:	li	t1,0
   10a4e:	bltu	s9,a4,103e4 <_vfprintf_r+0x13c>
   10a52:	lbu	s8,0(s0)
   10a56:	slli	a3,t1,0x2
   10a5a:	add	a3,a3,t1
   10a5c:	slli	a3,a3,0x1
   10a5e:	add	t1,a3,a4
   10a62:	addi	a4,s8,-48
   10a66:	addi	s0,s0,1
   10a68:	bgeu	s9,a4,10a52 <_vfprintf_r+0x7aa>
   10a6c:	j	103e4 <_vfprintf_r+0x13c>
   10a6e:	lbu	t3,0(s0)
   10a72:	ori	s1,s1,1
   10a76:	j	103e0 <_vfprintf_r+0x138>
   10a78:	lbu	a4,199(sp)
   10a7c:	lbu	t3,0(s0)
   10a80:	bnez	a4,103e0 <_vfprintf_r+0x138>
   10a84:	li	a4,32
   10a88:	sb	a4,199(sp)
   10a8c:	j	103e0 <_vfprintf_r+0x138>
   10a8e:	ori	a4,s1,16
   10a92:	andi	a5,a4,32
   10a96:	beqz	a5,10f84 <_vfprintf_r+0xcdc>
   10a9a:	lw	a5,12(sp)
   10a9c:	addi	a5,a5,7
   10a9e:	andi	a5,a5,-8
   10aa0:	lw	s7,0(a5)
   10aa4:	lw	s9,4(a5)
   10aa8:	addi	a5,a5,8
   10aaa:	sw	a5,12(sp)
   10aac:	li	a5,1
   10aae:	j	1064c <_vfprintf_r+0x3a4>
   10ab0:	lbu	t3,0(s0)
   10ab4:	ori	s1,s1,8
   10ab8:	j	103e0 <_vfprintf_r+0x138>
   10aba:	lw	a3,12(sp)
   10abc:	lui	a5,0xffff8
   10abe:	xori	a5,a5,-2000
   10ac2:	sh	a5,200(sp)
   10ac6:	addi	a5,a3,4
   10aca:	sw	a5,12(sp)
   10acc:	lui	a5,0x1e
   10ace:	addi	a5,a5,-1928 # 1d878 <__clzsi2+0x5c>
   10ad2:	sw	a5,24(sp)
   10ad4:	lw	s7,0(a3)
   10ad8:	li	s9,0
   10ada:	ori	a4,s1,2
   10ade:	li	a5,2
   10ae0:	li	s8,120
   10ae4:	j	1064c <_vfprintf_r+0x3a4>
   10ae6:	lw	a3,12(sp)
   10ae8:	andi	a5,s1,32
   10aec:	addi	a4,a3,4
   10af0:	bnez	a5,11002 <_vfprintf_r+0xd5a>
   10af4:	andi	a5,s1,16
   10af8:	bnez	a5,115d0 <_vfprintf_r+0x1328>
   10afc:	andi	a5,s1,64
   10b00:	bnez	a5,1182e <_vfprintf_r+0x1586>
   10b04:	andi	s1,s1,512
   10b08:	beqz	s1,115d0 <_vfprintf_r+0x1328>
   10b0c:	lw	a5,12(sp)
   10b0e:	sw	a4,12(sp)
   10b10:	lw	a4,4(sp)
   10b12:	lw	a5,0(a5)
   10b14:	mv	s10,s0
   10b16:	sb	a4,0(a5)
   10b1a:	j	10500 <_vfprintf_r+0x258>
   10b1c:	lbu	t3,0(s0)
   10b20:	li	a4,108
   10b24:	beq	t3,a4,110a6 <_vfprintf_r+0xdfe>
   10b28:	ori	s1,s1,16
   10b2c:	j	103e0 <_vfprintf_r+0x138>
   10b2e:	lbu	t3,0(s0)
   10b32:	li	a4,104
   10b36:	beq	t3,a4,11084 <_vfprintf_r+0xddc>
   10b3a:	ori	s1,s1,64
   10b3e:	j	103e0 <_vfprintf_r+0x138>
   10b40:	mv	a4,s1
   10b42:	addi	s10,sp,432
   10b46:	lw	a5,24(sp)
   10b48:	andi	a3,s7,15
   10b4c:	srli	s7,s7,0x4
   10b50:	add	a3,a3,a5
   10b52:	lbu	a2,0(a3)
   10b56:	slli	a3,s9,0x1c
   10b5a:	or	s7,a3,s7
   10b5e:	srli	s9,s9,0x4
   10b62:	sb	a2,-1(s10)
   10b66:	or	a3,s7,s9
   10b6a:	addi	s10,s10,-1
   10b6c:	bnez	a3,10b46 <_vfprintf_r+0x89e>
   10b6e:	addi	a5,sp,432
   10b70:	sub	s9,a5,s10
   10b74:	mv	s1,a4
   10b76:	j	1060c <_vfprintf_r+0x364>
   10b78:	li	a3,101
   10b7c:	bge	a3,s8,10766 <_vfprintf_r+0x4be>
   10b80:	lw	a3,240(sp)
   10b82:	addi	a1,sp,160
   10b84:	addi	a0,sp,176
   10b86:	sw	a3,176(sp)
   10b88:	lw	a3,244(sp)
   10b8a:	sw	a4,28(sp)
   10b8c:	sw	a7,8(sp)
   10b8e:	sw	a3,180(sp)
   10b90:	lw	a3,248(sp)
   10b92:	sw	zero,160(sp)
   10b94:	sw	zero,164(sp)
   10b96:	sw	a3,184(sp)
   10b98:	lw	a3,252(sp)
   10b9a:	sw	zero,168(sp)
   10b9c:	sw	zero,172(sp)
   10b9e:	sw	a3,188(sp)
   10ba0:	jal	ra,1afec <__eqtf2>
   10ba4:	lw	a7,8(sp)
   10ba6:	lw	a4,28(sp)
   10ba8:	bnez	a0,10e10 <_vfprintf_r+0xb68>
   10bac:	lw	a5,232(sp)
   10bae:	lui	a3,0x1e
   10bb0:	addi	a3,a3,-1880 # 1d8a8 <__clzsi2+0x8c>
   10bb4:	sw	a3,0(a7)
   10bb8:	addi	a4,a4,1
   10bba:	li	a3,1
   10bbc:	addi	a5,a5,1
   10bbe:	sw	a3,4(a7)
   10bc2:	sw	a4,236(sp)
   10bc4:	sw	a5,232(sp)
   10bc6:	li	a3,7
   10bc8:	addi	a7,a7,8
   10bca:	blt	a3,a5,11546 <_vfprintf_r+0x129e>
   10bce:	lw	a5,204(sp)
   10bd0:	lw	a3,16(sp)
   10bd2:	bge	a5,a3,10fa8 <_vfprintf_r+0xd00>
   10bd6:	lw	a5,64(sp)
   10bd8:	lw	a3,60(sp)
   10bda:	addi	a7,a7,8
   10bdc:	sw	a5,-8(a7)
   10be0:	lw	a5,232(sp)
   10be2:	add	a4,a4,a3
   10be4:	sw	a3,-4(a7)
   10be8:	addi	a5,a5,1
   10bea:	sw	a4,236(sp)
   10bec:	sw	a5,232(sp)
   10bee:	li	a3,7
   10bf0:	blt	a3,a5,11092 <_vfprintf_r+0xdea>
   10bf4:	lw	a5,16(sp)
   10bf6:	addi	s9,a5,-1
   10bfa:	blez	s9,104d2 <_vfprintf_r+0x22a>
   10bfe:	li	a3,16
   10c00:	lw	a5,232(sp)
   10c02:	bge	a3,s9,1155c <_vfprintf_r+0x12b4>
   10c06:	li	s10,16
   10c08:	li	s8,7
   10c0a:	j	10c12 <_vfprintf_r+0x96a>
   10c0c:	addi	s9,s9,-16
   10c0e:	bge	s10,s9,1155c <_vfprintf_r+0x12b4>
   10c12:	addi	a4,a4,16
   10c14:	addi	a5,a5,1
   10c16:	sw	s2,0(a7)
   10c1a:	sw	s10,4(a7)
   10c1e:	sw	a4,236(sp)
   10c20:	sw	a5,232(sp)
   10c22:	addi	a7,a7,8
   10c24:	bge	s8,a5,10c0c <_vfprintf_r+0x964>
   10c28:	addi	a2,sp,228
   10c2a:	mv	a1,s4
   10c2c:	mv	a0,s5
   10c2e:	jal	ra,17d6a <__sprint_r>
   10c32:	bnez	a0,10d48 <_vfprintf_r+0xaa0>
   10c36:	lw	a4,236(sp)
   10c38:	lw	a5,232(sp)
   10c3a:	mv	a7,s6
   10c3c:	j	10c0c <_vfprintf_r+0x964>
   10c3e:	sub	a6,s3,s7
   10c42:	blez	a6,104a8 <_vfprintf_r+0x200>
   10c46:	li	a2,16
   10c48:	lw	a3,232(sp)
   10c4a:	bge	a2,a6,10c94 <_vfprintf_r+0x9ec>
   10c4e:	li	t4,16
   10c50:	li	t5,7
   10c52:	j	10c5a <_vfprintf_r+0x9b2>
   10c54:	addi	a6,a6,-16
   10c56:	bge	t4,a6,10c94 <_vfprintf_r+0x9ec>
   10c5a:	addi	a4,a4,16
   10c5c:	addi	a3,a3,1
   10c5e:	sw	s2,0(a7)
   10c62:	sw	t4,4(a7)
   10c66:	sw	a4,236(sp)
   10c68:	sw	a3,232(sp)
   10c6a:	addi	a7,a7,8
   10c6c:	bge	t5,a3,10c54 <_vfprintf_r+0x9ac>
   10c70:	addi	a2,sp,228
   10c72:	mv	a1,s4
   10c74:	mv	a0,s5
   10c76:	sw	a6,28(sp)
   10c78:	sw	t1,8(sp)
   10c7a:	jal	ra,17d6a <__sprint_r>
   10c7e:	bnez	a0,10d48 <_vfprintf_r+0xaa0>
   10c80:	lw	a6,28(sp)
   10c82:	li	t4,16
   10c84:	lw	a4,236(sp)
   10c86:	addi	a6,a6,-16
   10c88:	lw	a3,232(sp)
   10c8a:	lw	t1,8(sp)
   10c8c:	mv	a7,s6
   10c8e:	li	t5,7
   10c90:	blt	t4,a6,10c5a <_vfprintf_r+0x9b2>
   10c94:	add	a4,a4,a6
   10c96:	addi	a3,a3,1
   10c98:	sw	s2,0(a7)
   10c9c:	sw	a6,4(a7)
   10ca0:	sw	a4,236(sp)
   10ca2:	sw	a3,232(sp)
   10ca4:	li	a2,7
   10ca6:	addi	a7,a7,8
   10ca8:	bge	a2,a3,104a8 <_vfprintf_r+0x200>
   10cac:	addi	a2,sp,228
   10cae:	mv	a1,s4
   10cb0:	mv	a0,s5
   10cb2:	sw	t1,8(sp)
   10cb4:	jal	ra,17d6a <__sprint_r>
   10cb8:	bnez	a0,10d48 <_vfprintf_r+0xaa0>
   10cba:	lw	a4,236(sp)
   10cbc:	lw	t1,8(sp)
   10cbe:	mv	a7,s6
   10cc0:	j	104a8 <_vfprintf_r+0x200>
   10cc4:	li	a2,16
   10cc6:	lw	a3,232(sp)
   10cc8:	bge	a2,t1,10d0e <_vfprintf_r+0xa66>
   10ccc:	li	a6,16
   10cce:	li	t4,7
   10cd0:	j	10cd8 <_vfprintf_r+0xa30>
   10cd2:	addi	t1,t1,-16
   10cd4:	bge	a6,t1,10d0e <_vfprintf_r+0xa66>
   10cd8:	addi	a4,a4,16
   10cda:	addi	a3,a3,1
   10cdc:	sw	s2,0(a7)
   10ce0:	sw	a6,4(a7)
   10ce4:	sw	a4,236(sp)
   10ce6:	sw	a3,232(sp)
   10ce8:	addi	a7,a7,8
   10cea:	bge	t4,a3,10cd2 <_vfprintf_r+0xa2a>
   10cee:	addi	a2,sp,228
   10cf0:	mv	a1,s4
   10cf2:	mv	a0,s5
   10cf4:	sw	t1,8(sp)
   10cf6:	jal	ra,17d6a <__sprint_r>
   10cfa:	bnez	a0,10d48 <_vfprintf_r+0xaa0>
   10cfc:	lw	t1,8(sp)
   10cfe:	li	a6,16
   10d00:	lw	a4,236(sp)
   10d02:	addi	t1,t1,-16
   10d04:	lw	a3,232(sp)
   10d06:	mv	a7,s6
   10d08:	li	t4,7
   10d0a:	blt	a6,t1,10cd8 <_vfprintf_r+0xa30>
   10d0e:	add	a4,a4,t1
   10d10:	addi	a3,a3,1
   10d12:	sw	s2,0(a7)
   10d16:	sw	t1,4(a7)
   10d1a:	sw	a4,236(sp)
   10d1c:	sw	a3,232(sp)
   10d1e:	li	a2,7
   10d20:	addi	a7,a7,8
   10d22:	bge	a2,a3,104b0 <_vfprintf_r+0x208>
   10d26:	addi	a2,sp,228
   10d28:	mv	a1,s4
   10d2a:	mv	a0,s5
   10d2c:	jal	ra,17d6a <__sprint_r>
   10d30:	bnez	a0,10d48 <_vfprintf_r+0xaa0>
   10d32:	lw	a4,236(sp)
   10d34:	mv	a7,s6
   10d36:	j	104b0 <_vfprintf_r+0x208>
   10d3a:	addi	a2,sp,228
   10d3c:	mv	a1,s4
   10d3e:	mv	a0,s5
   10d40:	jal	ra,17d6a <__sprint_r>
   10d44:	beqz	a0,104ee <_vfprintf_r+0x246>
   10d48:	beqz	s11,10510 <_vfprintf_r+0x268>
   10d4c:	mv	a1,s11
   10d4e:	mv	a0,s5
   10d50:	jal	ra,12706 <_free_r>
   10d54:	j	10510 <_vfprintf_r+0x268>
   10d58:	mv	a4,s1
   10d5a:	j	1090e <_vfprintf_r+0x666>
   10d5c:	lui	a5,0x1e
   10d5e:	li	a2,16
   10d60:	lw	a3,232(sp)
   10d62:	addi	t4,a5,-1360 # 1dab0 <blanks.1>
   10d66:	li	t5,16
   10d68:	li	t2,7
   10d6a:	blt	a2,a6,10d76 <_vfprintf_r+0xace>
   10d6e:	j	10dbc <_vfprintf_r+0xb14>
   10d70:	addi	a6,a6,-16
   10d72:	bge	t5,a6,10dbc <_vfprintf_r+0xb14>
   10d76:	addi	a4,a4,16
   10d78:	addi	a3,a3,1
   10d7a:	sw	t4,0(a7)
   10d7e:	sw	t5,4(a7)
   10d82:	sw	a4,236(sp)
   10d84:	sw	a3,232(sp)
   10d86:	addi	a7,a7,8
   10d88:	bge	t2,a3,10d70 <_vfprintf_r+0xac8>
   10d8c:	addi	a2,sp,228
   10d8e:	mv	a1,s4
   10d90:	mv	a0,s5
   10d92:	sw	t4,40(sp)
   10d94:	sw	a6,36(sp)
   10d96:	sw	t1,32(sp)
   10d98:	sw	t6,28(sp)
   10d9a:	sw	t0,8(sp)
   10d9c:	jal	ra,17d6a <__sprint_r>
   10da0:	bnez	a0,10d48 <_vfprintf_r+0xaa0>
   10da2:	lw	a6,36(sp)
   10da4:	li	t5,16
   10da6:	lw	a4,236(sp)
   10da8:	addi	a6,a6,-16
   10daa:	lw	a3,232(sp)
   10dac:	lw	t4,40(sp)
   10dae:	lw	t1,32(sp)
   10db0:	lw	t6,28(sp)
   10db2:	lw	t0,8(sp)
   10db4:	mv	a7,s6
   10db6:	li	t2,7
   10db8:	blt	t5,a6,10d76 <_vfprintf_r+0xace>
   10dbc:	add	a4,a4,a6
   10dbe:	addi	a3,a3,1
   10dc0:	sw	t4,0(a7)
   10dc4:	sw	a6,4(a7)
   10dc8:	sw	a4,236(sp)
   10dca:	sw	a3,232(sp)
   10dcc:	li	a2,7
   10dce:	addi	a7,a7,8
   10dd0:	bge	a2,a3,10458 <_vfprintf_r+0x1b0>
   10dd4:	addi	a2,sp,228
   10dd6:	mv	a1,s4
   10dd8:	mv	a0,s5
   10dda:	sw	t1,32(sp)
   10ddc:	sw	t6,28(sp)
   10dde:	sw	t0,8(sp)
   10de0:	jal	ra,17d6a <__sprint_r>
   10de4:	bnez	a0,10d48 <_vfprintf_r+0xaa0>
   10de6:	lw	a4,236(sp)
   10de8:	lw	t1,32(sp)
   10dea:	lw	t6,28(sp)
   10dec:	lw	t0,8(sp)
   10dee:	mv	a7,s6
   10df0:	j	10458 <_vfprintf_r+0x1b0>
   10df4:	addi	a2,sp,228
   10df6:	mv	a1,s4
   10df8:	mv	a0,s5
   10dfa:	sw	t1,28(sp)
   10dfc:	sw	t6,8(sp)
   10dfe:	jal	ra,17d6a <__sprint_r>
   10e02:	bnez	a0,10d48 <_vfprintf_r+0xaa0>
   10e04:	lw	a4,236(sp)
   10e06:	lw	t1,28(sp)
   10e08:	lw	t6,8(sp)
   10e0a:	mv	a7,s6
   10e0c:	j	104a0 <_vfprintf_r+0x1f8>
   10e10:	lw	a1,204(sp)
   10e12:	blez	a1,114f4 <_vfprintf_r+0x124c>
   10e16:	lw	a5,44(sp)
   10e18:	lw	a3,16(sp)
   10e1a:	mv	s9,a5
   10e1c:	blt	a3,a5,11030 <_vfprintf_r+0xd88>
   10e20:	blez	s9,10e3e <_vfprintf_r+0xb96>
   10e24:	lw	a3,232(sp)
   10e26:	add	a4,a4,s9
   10e28:	sw	s10,0(a7)
   10e2c:	addi	a3,a3,1
   10e2e:	sw	s9,4(a7)
   10e32:	sw	a4,236(sp)
   10e34:	sw	a3,232(sp)
   10e36:	li	a2,7
   10e38:	addi	a7,a7,8
   10e3a:	blt	a2,a3,117fc <_vfprintf_r+0x1554>
   10e3e:	not	a3,s9
   10e42:	lw	a5,44(sp)
   10e44:	srai	a3,a3,0x1f
   10e46:	and	s9,s9,a3
   10e4a:	sub	s9,a5,s9
   10e4e:	bgtz	s9,110d4 <_vfprintf_r+0xe2c>
   10e52:	lw	a5,44(sp)
   10e54:	andi	a3,s1,1024
   10e58:	add	s8,s10,a5
   10e5c:	bnez	a3,116a8 <_vfprintf_r+0x1400>
   10e60:	lw	s9,204(sp)
   10e62:	lw	a5,16(sp)
   10e64:	blt	s9,a5,10e70 <_vfprintf_r+0xbc8>
   10e68:	andi	a3,s1,1
   10e6c:	beqz	a3,11816 <_vfprintf_r+0x156e>
   10e70:	lw	a3,64(sp)
   10e72:	lw	a5,60(sp)
   10e74:	li	a2,7
   10e76:	sw	a3,0(a7)
   10e7a:	lw	a3,232(sp)
   10e7c:	add	a4,a4,a5
   10e7e:	sw	a5,4(a7)
   10e82:	addi	a3,a3,1
   10e84:	sw	a4,236(sp)
   10e86:	sw	a3,232(sp)
   10e88:	addi	a7,a7,8
   10e8a:	blt	a2,a3,11b74 <_vfprintf_r+0x18cc>
   10e8e:	lw	a3,16(sp)
   10e90:	add	a5,s10,a3
   10e94:	sub	s9,a3,s9
   10e98:	sub	s10,a5,s8
   10e9c:	bge	s9,s10,10ea2 <_vfprintf_r+0xbfa>
   10ea0:	mv	s10,s9
   10ea2:	blez	s10,10ec0 <_vfprintf_r+0xc18>
   10ea6:	lw	a3,232(sp)
   10ea8:	add	a4,a4,s10
   10eaa:	sw	s8,0(a7)
   10eae:	addi	a3,a3,1
   10eb0:	sw	s10,4(a7)
   10eb4:	sw	a4,236(sp)
   10eb6:	sw	a3,232(sp)
   10eb8:	li	a2,7
   10eba:	addi	a7,a7,8
   10ebc:	blt	a2,a3,11bbe <_vfprintf_r+0x1916>
   10ec0:	not	a3,s10
   10ec4:	srai	a3,a3,0x1f
   10ec6:	and	a5,s10,a3
   10eca:	sub	s9,s9,a5
   10ece:	blez	s9,104d2 <_vfprintf_r+0x22a>
   10ed2:	li	a3,16
   10ed4:	lw	a5,232(sp)
   10ed6:	bge	a3,s9,1155c <_vfprintf_r+0x12b4>
   10eda:	li	s10,16
   10edc:	li	s8,7
   10ede:	j	10ee6 <_vfprintf_r+0xc3e>
   10ee0:	addi	s9,s9,-16
   10ee2:	bge	s10,s9,1155c <_vfprintf_r+0x12b4>
   10ee6:	addi	a4,a4,16
   10ee8:	addi	a5,a5,1
   10eea:	sw	s2,0(a7)
   10eee:	sw	s10,4(a7)
   10ef2:	sw	a4,236(sp)
   10ef4:	sw	a5,232(sp)
   10ef6:	addi	a7,a7,8
   10ef8:	bge	s8,a5,10ee0 <_vfprintf_r+0xc38>
   10efc:	addi	a2,sp,228
   10efe:	mv	a1,s4
   10f00:	mv	a0,s5
   10f02:	jal	ra,17d6a <__sprint_r>
   10f06:	bnez	a0,10d48 <_vfprintf_r+0xaa0>
   10f0a:	lw	a4,236(sp)
   10f0c:	lw	a5,232(sp)
   10f0e:	mv	a7,s6
   10f10:	j	10ee0 <_vfprintf_r+0xc38>
   10f12:	andi	a1,s1,1
   10f16:	bnez	a1,1077c <_vfprintf_r+0x4d4>
   10f1a:	sw	a3,4(a7)
   10f1e:	sw	a4,236(sp)
   10f20:	sw	s9,232(sp)
   10f22:	li	a5,7
   10f24:	bge	a5,s9,107f2 <_vfprintf_r+0x54a>
   10f28:	addi	a2,sp,228
   10f2a:	mv	a1,s4
   10f2c:	mv	a0,s5
   10f2e:	jal	ra,17d6a <__sprint_r>
   10f32:	bnez	a0,10d48 <_vfprintf_r+0xaa0>
   10f36:	lw	a4,236(sp)
   10f38:	lw	s9,232(sp)
   10f3a:	mv	s8,s6
   10f3c:	j	107f2 <_vfprintf_r+0x54a>
   10f3e:	blez	a3,107f2 <_vfprintf_r+0x54a>
   10f42:	li	a5,16
   10f44:	bge	a5,a3,11622 <_vfprintf_r+0x137a>
   10f48:	li	s10,7
   10f4a:	j	10f52 <_vfprintf_r+0xcaa>
   10f4c:	addi	a3,a3,-16
   10f4e:	bge	a5,a3,11622 <_vfprintf_r+0x137a>
   10f52:	addi	a4,a4,16
   10f54:	addi	s9,s9,1
   10f56:	sw	s2,0(s8)
   10f5a:	sw	a5,4(s8)
   10f5e:	sw	a4,236(sp)
   10f60:	sw	s9,232(sp)
   10f62:	addi	s8,s8,8
   10f64:	bge	s10,s9,10f4c <_vfprintf_r+0xca4>
   10f68:	addi	a2,sp,228
   10f6a:	mv	a1,s4
   10f6c:	mv	a0,s5
   10f6e:	sw	a3,8(sp)
   10f70:	jal	ra,17d6a <__sprint_r>
   10f74:	bnez	a0,10d48 <_vfprintf_r+0xaa0>
   10f78:	lw	a4,236(sp)
   10f7a:	lw	s9,232(sp)
   10f7c:	lw	a3,8(sp)
   10f7e:	mv	s8,s6
   10f80:	li	a5,16
   10f82:	j	10f4c <_vfprintf_r+0xca4>
   10f84:	lw	a3,12(sp)
   10f86:	andi	a5,a4,16
   10f8a:	lw	s7,0(a3)
   10f8e:	addi	a3,a3,4
   10f90:	sw	a3,12(sp)
   10f92:	bnez	a5,10fc6 <_vfprintf_r+0xd1e>
   10f94:	andi	a5,a4,64
   10f98:	beqz	a5,10fbc <_vfprintf_r+0xd14>
   10f9a:	slli	s7,s7,0x10
   10f9c:	srli	s7,s7,0x10
   10fa0:	li	s9,0
   10fa2:	li	a5,1
   10fa4:	j	1064c <_vfprintf_r+0x3a4>
   10fa8:	andi	a5,s1,1
   10fac:	beqz	a5,104d2 <_vfprintf_r+0x22a>
   10fb0:	j	10bd6 <_vfprintf_r+0x92e>
   10fb2:	lbu	t3,0(s0)
   10fb6:	sw	s8,12(sp)
   10fb8:	j	103e0 <_vfprintf_r+0x138>
   10fbc:	andi	a5,a4,512
   10fc0:	beqz	a5,10fc6 <_vfprintf_r+0xd1e>
   10fc2:	zext.b	s7,s7
   10fc6:	li	s9,0
   10fc8:	li	a5,1
   10fca:	j	1064c <_vfprintf_r+0x3a4>
   10fce:	andi	a5,s1,512
   10fd2:	bnez	a5,1184a <_vfprintf_r+0x15a2>
   10fd6:	srai	s9,s7,0x1f
   10fda:	mv	a5,s9
   10fdc:	j	105e6 <_vfprintf_r+0x33e>
   10fe0:	andi	a5,s1,512
   10fe4:	bnez	a5,1185a <_vfprintf_r+0x15b2>
   10fe8:	li	s9,0
   10fea:	j	10646 <_vfprintf_r+0x39e>
   10fee:	lw	a5,12(sp)
   10ff0:	lw	a4,0(a5)
   10ff2:	addi	a5,a5,4
   10ff4:	sw	a5,12(sp)
   10ff6:	lw	a1,0(a4)
   10ff8:	lw	a2,4(a4)
   10ffa:	lw	a3,8(a4)
   10ffc:	lw	a4,12(a4)
   10ffe:	j	106ce <_vfprintf_r+0x426>
   11002:	lw	a2,4(sp)
   11004:	lw	a5,0(a3)
   11006:	sw	a4,12(sp)
   11008:	srai	a3,a2,0x1f
   1100c:	sw	a2,0(a5)
   1100e:	sw	a3,4(a5)
   11010:	mv	s10,s0
   11012:	j	10500 <_vfprintf_r+0x258>
   11016:	lw	a5,56(sp)
   11018:	lbu	t3,0(s0)
   1101c:	beqz	a5,103e0 <_vfprintf_r+0x138>
   11020:	lbu	a4,0(a5)
   11024:	beqz	a4,103e0 <_vfprintf_r+0x138>
   11028:	ori	s1,s1,1024
   1102c:	j	103e0 <_vfprintf_r+0x138>
   11030:	mv	s9,a3
   11032:	bgtz	s9,10e24 <_vfprintf_r+0xb7c>
   11036:	j	10e3e <_vfprintf_r+0xb96>
   11038:	mv	a4,s1
   1103a:	j	10a92 <_vfprintf_r+0x7ea>
   1103c:	lui	a5,0x1e
   1103e:	addi	a5,a5,-1928 # 1d878 <__clzsi2+0x5c>
   11042:	sw	a5,24(sp)
   11044:	andi	a5,s1,32
   11048:	beqz	a5,11324 <_vfprintf_r+0x107c>
   1104c:	lw	a5,12(sp)
   1104e:	addi	a5,a5,7
   11050:	andi	a5,a5,-8
   11052:	lw	s7,0(a5)
   11056:	lw	s9,4(a5)
   1105a:	addi	a5,a5,8
   1105c:	sw	a5,12(sp)
   1105e:	andi	a5,s1,1
   11062:	beqz	a5,1107a <_vfprintf_r+0xdd2>
   11064:	or	a5,s7,s9
   11068:	beqz	a5,1107a <_vfprintf_r+0xdd2>
   1106a:	li	a5,48
   1106e:	sb	a5,200(sp)
   11072:	sb	s8,201(sp)
   11076:	ori	s1,s1,2
   1107a:	andi	a4,s1,-1025
   1107e:	li	a5,2
   11080:	j	1064c <_vfprintf_r+0x3a4>
   11084:	lbu	t3,1(s0)
   11088:	ori	s1,s1,512
   1108c:	addi	s0,s0,1
   1108e:	j	103e0 <_vfprintf_r+0x138>
   11092:	addi	a2,sp,228
   11094:	mv	a1,s4
   11096:	mv	a0,s5
   11098:	jal	ra,17d6a <__sprint_r>
   1109c:	bnez	a0,10d48 <_vfprintf_r+0xaa0>
   110a0:	lw	a4,236(sp)
   110a2:	mv	a7,s6
   110a4:	j	10bf4 <_vfprintf_r+0x94c>
   110a6:	lbu	t3,1(s0)
   110aa:	ori	s1,s1,32
   110ae:	addi	s0,s0,1
   110b0:	j	103e0 <_vfprintf_r+0x138>
   110b4:	lui	a5,0x1e
   110b6:	addi	a5,a5,-1908 # 1d88c <__clzsi2+0x70>
   110ba:	sw	a5,24(sp)
   110bc:	j	11044 <_vfprintf_r+0xd9c>
   110be:	li	a5,6
   110c0:	mv	s9,t1
   110c2:	bltu	a5,t1,11812 <_vfprintf_r+0x156a>
   110c6:	lui	a5,0x1e
   110c8:	mv	s7,s9
   110ca:	sw	a3,12(sp)
   110cc:	addi	s10,a5,-1888 # 1d8a0 <__clzsi2+0x84>
   110d0:	j	10432 <_vfprintf_r+0x18a>
   110d4:	li	a2,16
   110d6:	lw	a3,232(sp)
   110d8:	bge	a2,s9,1167a <_vfprintf_r+0x13d2>
   110dc:	li	a6,16
   110de:	li	s8,7
   110e0:	j	110e8 <_vfprintf_r+0xe40>
   110e2:	addi	s9,s9,-16
   110e4:	bge	a6,s9,1167a <_vfprintf_r+0x13d2>
   110e8:	addi	a4,a4,16
   110ea:	addi	a3,a3,1
   110ec:	sw	s2,0(a7)
   110f0:	sw	a6,4(a7)
   110f4:	sw	a4,236(sp)
   110f6:	sw	a3,232(sp)
   110f8:	addi	a7,a7,8
   110fa:	bge	s8,a3,110e2 <_vfprintf_r+0xe3a>
   110fe:	addi	a2,sp,228
   11100:	mv	a1,s4
   11102:	mv	a0,s5
   11104:	jal	ra,17d6a <__sprint_r>
   11108:	bnez	a0,10d48 <_vfprintf_r+0xaa0>
   1110c:	lw	a4,236(sp)
   1110e:	lw	a3,232(sp)
   11110:	mv	a7,s6
   11112:	li	a6,16
   11114:	j	110e2 <_vfprintf_r+0xe3a>
   11116:	li	a5,120
   1111a:	li	a4,48
   1111e:	sb	a5,201(sp)
   11122:	ori	a5,s1,2
   11126:	sb	a4,200(sp)
   1112a:	sw	a5,104(sp)
   1112c:	li	a4,99
   11130:	li	s11,0
   11132:	addi	s10,sp,332
   11136:	blt	a4,t1,118ac <_vfprintf_r+0x1604>
   1113a:	lw	t4,252(sp)
   1113c:	andi	a5,s8,-33
   11140:	sw	a5,100(sp)
   11142:	sw	zero,124(sp)
   11144:	lw	t5,240(sp)
   11146:	lw	t6,244(sp)
   11148:	lw	t0,248(sp)
   1114a:	ori	s1,s1,258
   1114e:	bltz	t4,11884 <_vfprintf_r+0x15dc>
   11152:	li	a4,97
   11156:	beq	s8,a4,11d4a <_vfprintf_r+0x1aa2>
   1115a:	addi	a4,s8,-65
   1115e:	li	a3,37
   11162:	bltu	a3,a4,11174 <_vfprintf_r+0xecc>
   11166:	lui	a3,0x1e
   11168:	slli	a4,a4,0x2
   1116a:	addi	a3,a3,-1512 # 1da18 <__clzsi2+0x1fc>
   1116e:	add	a4,a4,a3
   11170:	lw	a4,0(a4)
   11172:	jr	a4
   11174:	mv	a3,t1
   11176:	li	a2,2
   11178:	addi	s7,sp,176
   1117c:	addi	a5,sp,208
   1117e:	addi	a4,sp,204
   11180:	addi	a6,sp,220
   11184:	mv	a1,s7
   11186:	mv	a0,s5
   11188:	sw	a7,44(sp)
   1118a:	sw	t1,40(sp)
   1118c:	sw	a3,36(sp)
   1118e:	sw	t5,176(sp)
   11190:	sw	t5,32(sp)
   11192:	sw	t6,180(sp)
   11194:	sw	t6,28(sp)
   11196:	sw	t0,184(sp)
   11198:	sw	t0,16(sp)
   1119a:	sw	t4,188(sp)
   1119c:	sw	t4,8(sp)
   1119e:	jal	ra,13bb0 <_ldtoa_r>
   111a2:	lw	a5,100(sp)
   111a4:	li	a4,71
   111a8:	lw	t4,8(sp)
   111aa:	lw	t0,16(sp)
   111ac:	lw	t6,28(sp)
   111ae:	lw	t5,32(sp)
   111b0:	lw	a3,36(sp)
   111b2:	lw	t1,40(sp)
   111b4:	lw	a7,44(sp)
   111b6:	mv	s10,a0
   111b8:	beq	a5,a4,11b42 <_vfprintf_r+0x189a>
   111bc:	li	a4,70
   111c0:	add	a6,a0,a3
   111c4:	bne	a5,a4,118c8 <_vfprintf_r+0x1620>
   111c8:	lbu	a2,0(a0) # 1f000 <__FRAME_END__>
   111cc:	li	a4,48
   111d0:	beq	a2,a4,11e40 <_vfprintf_r+0x1b98>
   111d4:	addi	s9,sp,160
   111d8:	lw	a4,204(sp)
   111da:	add	a6,a6,a4
   111dc:	mv	a1,s9
   111de:	mv	a0,s7
   111e0:	sw	a6,28(sp)
   111e2:	sw	a7,16(sp)
   111e4:	sw	t1,8(sp)
   111e6:	sw	t5,176(sp)
   111e8:	sw	t6,180(sp)
   111ea:	sw	t0,184(sp)
   111ec:	sw	t4,188(sp)
   111ee:	sw	zero,160(sp)
   111f0:	sw	zero,164(sp)
   111f2:	sw	zero,168(sp)
   111f4:	sw	zero,172(sp)
   111f6:	jal	ra,1afec <__eqtf2>
   111fa:	lw	a6,28(sp)
   111fc:	lw	t1,8(sp)
   111fe:	lw	a7,16(sp)
   11200:	mv	a4,a6
   11202:	beqz	a0,1121e <_vfprintf_r+0xf76>
   11204:	lw	a4,220(sp)
   11206:	bgeu	a4,a6,1121e <_vfprintf_r+0xf76>
   1120a:	li	a2,48
   1120e:	addi	a3,a4,1
   11212:	sw	a3,220(sp)
   11214:	sb	a2,0(a4)
   11218:	lw	a4,220(sp)
   1121a:	bltu	a4,a6,1120e <_vfprintf_r+0xf66>
   1121e:	sub	a5,a4,s10
   11222:	sw	a5,16(sp)
   11224:	lw	a5,204(sp)
   11226:	li	a4,71
   1122a:	sw	a5,44(sp)
   1122c:	lw	a5,100(sp)
   1122e:	beq	a5,a4,11ada <_vfprintf_r+0x1832>
   11232:	lw	a5,100(sp)
   11234:	li	a4,70
   11238:	beq	a5,a4,11c4a <_vfprintf_r+0x19a2>
   1123c:	lw	a5,44(sp)
   1123e:	li	a1,65
   11242:	zext.b	a3,s8
   11246:	addi	a4,a5,-1
   1124a:	lw	a5,100(sp)
   1124c:	sw	a4,204(sp)
   1124e:	li	a2,0
   11250:	bne	a5,a1,1125c <_vfprintf_r+0xfb4>
   11254:	addi	a3,a3,15
   11256:	zext.b	a3,a3
   1125a:	li	a2,1
   1125c:	sb	a3,212(sp)
   11260:	li	a3,43
   11264:	bgez	a4,11272 <_vfprintf_r+0xfca>
   11268:	lw	a5,44(sp)
   1126a:	li	a4,1
   1126c:	li	a3,45
   11270:	sub	a4,a4,a5
   11272:	sb	a3,213(sp)
   11276:	li	a3,9
   11278:	bge	a3,a4,11c78 <_vfprintf_r+0x19d0>
   1127c:	addi	t1,sp,227
   11280:	mv	a0,t1
   11282:	li	a2,10
   11284:	li	t4,99
   11288:	rem	a3,a4,a2
   1128c:	mv	a1,a0
   1128e:	mv	a6,a4
   11290:	addi	a0,a0,-1
   11292:	addi	a3,a3,48
   11296:	sb	a3,-1(a1)
   1129a:	div	a4,a4,a2
   1129e:	blt	t4,a6,11288 <_vfprintf_r+0xfe0>
   112a2:	addi	a4,a4,48
   112a6:	zext.b	a2,a4
   112aa:	sb	a2,-1(a0)
   112ae:	addi	a4,a1,-2
   112b2:	bgeu	a4,t1,11ed2 <_vfprintf_r+0x1c2a>
   112b6:	addi	a3,sp,214
   112ba:	j	112c0 <_vfprintf_r+0x1018>
   112bc:	lbu	a2,0(a4)
   112c0:	sb	a2,0(a3)
   112c4:	addi	a4,a4,1
   112c6:	addi	a3,a3,1
   112c8:	bne	a4,t1,112bc <_vfprintf_r+0x1014>
   112cc:	addi	a4,sp,229
   112d0:	addi	a5,sp,214
   112d4:	sub	a4,a4,a1
   112d6:	add	a4,a4,a5
   112d8:	addi	a3,sp,212
   112da:	sub	a5,a4,a3
   112de:	sw	a5,68(sp)
   112e0:	lw	a5,16(sp)
   112e2:	lw	a3,68(sp)
   112e4:	li	a4,1
   112e6:	add	s9,a5,a3
   112ea:	bge	a4,a5,11d28 <_vfprintf_r+0x1a80>
   112ee:	lw	a5,60(sp)
   112f0:	add	s9,s9,a5
   112f2:	lw	a5,104(sp)
   112f4:	not	s7,s9
   112f8:	srai	s7,s7,0x1f
   112fc:	andi	s1,a5,-1025
   11300:	ori	s1,s1,256
   11304:	and	s7,s9,s7
   11308:	sw	zero,48(sp)
   1130a:	sw	zero,52(sp)
   1130c:	sw	zero,44(sp)
   1130e:	lw	a5,124(sp)
   11310:	beqz	a5,11af2 <_vfprintf_r+0x184a>
   11314:	li	a4,45
   11318:	sb	a4,199(sp)
   1131c:	li	t1,0
   1131e:	addi	s7,s7,1
   11320:	j	1043c <_vfprintf_r+0x194>
   11324:	lw	a4,12(sp)
   11326:	andi	a5,s1,16
   1132a:	lw	s7,0(a4)
   1132e:	addi	a4,a4,4
   11330:	sw	a4,12(sp)
   11332:	bnez	a5,1137c <_vfprintf_r+0x10d4>
   11334:	andi	a5,s1,64
   11338:	beqz	a5,11374 <_vfprintf_r+0x10cc>
   1133a:	slli	s7,s7,0x10
   1133c:	srli	s7,s7,0x10
   11340:	li	s9,0
   11342:	j	1105e <_vfprintf_r+0xdb6>
   11344:	addi	a2,sp,228
   11346:	mv	a1,s4
   11348:	mv	a0,s5
   1134a:	jal	ra,17d6a <__sprint_r>
   1134e:	bnez	a0,10d48 <_vfprintf_r+0xaa0>
   11352:	lw	a4,236(sp)
   11354:	lw	s9,232(sp)
   11356:	mv	s8,s6
   11358:	j	1078c <_vfprintf_r+0x4e4>
   1135c:	addi	a2,sp,228
   1135e:	mv	a1,s4
   11360:	mv	a0,s5
   11362:	jal	ra,17d6a <__sprint_r>
   11366:	bnez	a0,10d48 <_vfprintf_r+0xaa0>
   1136a:	lw	a4,236(sp)
   1136c:	lw	s9,232(sp)
   1136e:	mv	s8,s6
   11370:	j	107a8 <_vfprintf_r+0x500>
   11374:	andi	a5,s1,512
   11378:	bnez	a5,11840 <_vfprintf_r+0x1598>
   1137c:	li	s9,0
   1137e:	j	1105e <_vfprintf_r+0xdb6>
   11380:	lui	a5,0xccccd
   11384:	lui	a3,0x10000
   11388:	andi	t0,a4,1024
   1138c:	sw	zero,16(sp)
   1138e:	addi	a0,sp,432
   11390:	addi	a3,a3,-1
   11392:	li	t6,5
   11394:	addi	s11,a5,-819 # cccccccd <__BSS_END__+0xcccad295>
   11398:	addi	t2,a5,-820
   1139c:	li	t3,255
   113a0:	j	113e8 <_vfprintf_r+0x1140>
   113a2:	or	s1,s1,a6
   113a6:	and	a2,s7,a3
   113aa:	and	s1,s1,a3
   113ac:	add	a2,a2,s1
   113ae:	add	a2,a2,t4
   113b0:	remu	a2,a2,t6
   113b4:	sub	a2,s7,a2
   113b8:	sltu	a0,s7,a2
   113bc:	sub	a0,s9,a0
   113c0:	mul	a0,a0,s11
   113c4:	mul	a1,a2,t2
   113c8:	mulhu	a6,a2,s11
   113cc:	add	a1,a1,a0
   113ce:	mul	a2,a2,s11
   113d2:	add	a1,a1,a6
   113d4:	slli	a0,a1,0x1f
   113d8:	srli	a1,a1,0x1
   113da:	srli	a2,a2,0x1
   113dc:	or	a0,a0,a2
   113de:	beqz	s9,117d4 <_vfprintf_r+0x152c>
   113e2:	mv	s7,a0
   113e4:	mv	s9,a1
   113e6:	mv	a0,s10
   113e8:	slli	s1,s9,0x4
   113ec:	srli	a6,s7,0x1c
   113f0:	or	a5,s1,a6
   113f4:	and	a5,a5,a3
   113f6:	and	a2,s7,a3
   113fa:	add	a2,a2,a5
   113fc:	srli	t4,s9,0x18
   11400:	add	a2,a2,t4
   11402:	remu	a2,a2,t6
   11406:	lw	a5,16(sp)
   11408:	addi	s10,a0,-1
   1140c:	addi	a5,a5,1
   1140e:	sw	a5,16(sp)
   11410:	sub	a2,s7,a2
   11414:	sltu	a1,s7,a2
   11418:	sub	a1,s9,a1
   1141c:	mulhu	t5,a2,s11
   11420:	mul	a1,a1,s11
   11424:	mul	a2,a2,s11
   11428:	add	a1,a1,t5
   1142a:	slli	a1,a1,0x1f
   1142c:	srli	t5,a2,0x1
   11430:	or	t5,a1,t5
   11434:	slli	a2,t5,0x2
   11438:	add	a2,a2,t5
   1143a:	slli	a2,a2,0x1
   1143c:	sub	a2,s7,a2
   11440:	addi	a2,a2,48 # 2030 <register_fini-0xe044>
   11444:	sb	a2,-1(a0)
   11448:	beqz	t0,113a2 <_vfprintf_r+0x10fa>
   1144c:	lw	a2,56(sp)
   1144e:	lbu	a2,0(a2)
   11452:	bne	a5,a2,113a2 <_vfprintf_r+0x10fa>
   11456:	beq	a5,t3,113a2 <_vfprintf_r+0x10fa>
   1145a:	bnez	s9,11464 <_vfprintf_r+0x11bc>
   1145e:	li	a5,9
   11460:	bgeu	a5,s7,10b6e <_vfprintf_r+0x8c6>
   11464:	lw	a5,72(sp)
   11466:	lw	a1,76(sp)
   11468:	sw	a6,40(sp)
   1146a:	sub	s10,s10,a5
   1146e:	mv	a2,a5
   11470:	mv	a0,s10
   11472:	sw	t4,16(sp)
   11474:	sw	t0,36(sp)
   11476:	sw	a7,32(sp)
   11478:	sw	t1,28(sp)
   1147a:	sw	a4,8(sp)
   1147c:	jal	ra,16054 <strncpy>
   11480:	lw	a6,40(sp)
   11482:	lui	a5,0x10000
   11486:	addi	a3,a5,-1 # fffffff <__BSS_END__+0xffe05c7>
   1148a:	lw	t4,16(sp)
   1148c:	or	a2,s1,a6
   11490:	and	a2,a2,a3
   11492:	and	a1,s7,a3
   11496:	add	a1,a1,a2
   11498:	add	a1,a1,t4
   1149a:	li	t6,5
   1149c:	remu	a1,a1,t6
   114a0:	lw	a5,56(sp)
   114a2:	lw	a4,8(sp)
   114a4:	lw	t1,28(sp)
   114a6:	lbu	a2,1(a5)
   114aa:	lw	a7,32(sp)
   114ac:	lw	t0,36(sp)
   114ae:	snez	a2,a2
   114b2:	add	a5,a5,a2
   114b4:	sw	a5,56(sp)
   114b6:	lui	a5,0xccccd
   114ba:	addi	t2,a5,-820 # cccccccc <__BSS_END__+0xcccad294>
   114be:	sw	zero,16(sp)
   114c0:	li	t3,255
   114c4:	sub	a1,s7,a1
   114c8:	sltu	a0,s7,a1
   114cc:	sub	a0,s9,a0
   114d0:	mul	a0,a0,s11
   114d4:	mul	a2,a1,t2
   114d8:	mulhu	a6,a1,s11
   114dc:	add	a2,a2,a0
   114de:	mul	a0,a1,s11
   114e2:	add	a2,a2,a6
   114e4:	slli	a6,a2,0x1f
   114e8:	srli	a1,a2,0x1
   114ec:	srli	a0,a0,0x1
   114ee:	or	a0,a6,a0
   114f2:	j	113e2 <_vfprintf_r+0x113a>
   114f4:	lw	a3,232(sp)
   114f6:	lui	a2,0x1e
   114f8:	addi	a2,a2,-1880 # 1d8a8 <__clzsi2+0x8c>
   114fc:	sw	a2,0(a7)
   11500:	addi	a4,a4,1
   11502:	li	a2,1
   11504:	addi	a3,a3,1
   11506:	sw	a2,4(a7)
   1150a:	sw	a4,236(sp)
   1150c:	sw	a3,232(sp)
   1150e:	li	a2,7
   11510:	addi	a7,a7,8
   11512:	blt	a2,a3,117de <_vfprintf_r+0x1536>
   11516:	bnez	a1,115e0 <_vfprintf_r+0x1338>
   11518:	lw	a5,16(sp)
   1151a:	andi	a3,s1,1
   1151e:	or	a3,a3,a5
   11520:	bnez	a3,11526 <_vfprintf_r+0x127e>
   11522:	j	104d2 <_vfprintf_r+0x22a>
   11526:	lw	a3,64(sp)
   11528:	lw	a5,60(sp)
   1152a:	li	a2,7
   1152c:	sw	a3,0(a7)
   11530:	lw	a3,232(sp)
   11532:	add	a4,a4,a5
   11534:	sw	a5,4(a7)
   11538:	addi	a3,a3,1
   1153a:	sw	a4,236(sp)
   1153c:	sw	a3,232(sp)
   1153e:	blt	a2,a3,11894 <_vfprintf_r+0x15ec>
   11542:	addi	a7,a7,8
   11544:	j	11602 <_vfprintf_r+0x135a>
   11546:	addi	a2,sp,228
   11548:	mv	a1,s4
   1154a:	mv	a0,s5
   1154c:	jal	ra,17d6a <__sprint_r>
   11550:	bnez	a0,10d48 <_vfprintf_r+0xaa0>
   11554:	lw	a4,236(sp)
   11556:	mv	a7,s6
   11558:	j	10bce <_vfprintf_r+0x926>
   1155c:	add	a4,a4,s9
   1155e:	addi	a5,a5,1
   11560:	sw	s2,0(a7)
   11564:	j	104c2 <_vfprintf_r+0x21a>
   11568:	li	a4,1
   1156a:	beq	a5,a4,11ca2 <_vfprintf_r+0x19fa>
   1156e:	li	a4,2
   11570:	beq	a5,a4,10b40 <_vfprintf_r+0x898>
   11574:	mv	a4,s1
   11576:	j	1091a <_vfprintf_r+0x672>
   1157a:	lw	a5,240(sp)
   1157c:	addi	a1,sp,160
   1157e:	addi	a0,sp,176
   11580:	sw	a5,176(sp)
   11582:	lw	a5,244(sp)
   11584:	sw	a7,8(sp)
   11586:	sw	zero,160(sp)
   11588:	sw	a5,180(sp)
   1158a:	lw	a5,248(sp)
   1158c:	sw	zero,164(sp)
   1158e:	sw	zero,168(sp)
   11590:	sw	a5,184(sp)
   11592:	lw	a5,252(sp)
   11594:	sw	zero,172(sp)
   11596:	sw	a5,188(sp)
   11598:	jal	ra,1b1d2 <__letf2>
   1159c:	lw	a7,8(sp)
   1159e:	bltz	a0,11b8c <_vfprintf_r+0x18e4>
   115a2:	lbu	a4,199(sp)
   115a6:	li	a5,71
   115aa:	bge	a5,s8,117f4 <_vfprintf_r+0x154c>
   115ae:	lui	a5,0x1e
   115b0:	addi	s10,a5,-1940 # 1d86c <__clzsi2+0x50>
   115b4:	sw	zero,48(sp)
   115b6:	sw	zero,52(sp)
   115b8:	sw	zero,44(sp)
   115ba:	andi	s1,s1,-129
   115be:	li	s7,3
   115c0:	li	s11,0
   115c2:	li	s9,3
   115c4:	li	t1,0
   115c6:	beqz	a4,115cc <_vfprintf_r+0x1324>
   115c8:	j	10624 <_vfprintf_r+0x37c>
   115cc:	j	1043c <_vfprintf_r+0x194>
   115d0:	lw	a5,12(sp)
   115d2:	mv	s10,s0
   115d4:	lw	a5,0(a5)
   115d6:	sw	a4,12(sp)
   115d8:	lw	a4,4(sp)
   115da:	sw	a4,0(a5)
   115dc:	j	10500 <_vfprintf_r+0x258>
   115e0:	lw	a3,64(sp)
   115e2:	lw	a5,60(sp)
   115e4:	li	a2,7
   115e6:	sw	a3,0(a7)
   115ea:	lw	a3,232(sp)
   115ec:	add	a4,a4,a5
   115ee:	sw	a5,4(a7)
   115f2:	addi	a3,a3,1
   115f4:	sw	a4,236(sp)
   115f6:	sw	a3,232(sp)
   115f8:	addi	a7,a7,8
   115fa:	blt	a2,a3,11894 <_vfprintf_r+0x15ec>
   115fe:	bltz	a1,11bdc <_vfprintf_r+0x1934>
   11602:	lw	a5,16(sp)
   11604:	addi	a3,a3,1
   11606:	sw	s10,0(a7)
   1160a:	add	a4,a4,a5
   1160c:	sw	a5,4(a7)
   11610:	sw	a4,236(sp)
   11612:	sw	a3,232(sp)
   11614:	li	a5,7
   11616:	blt	a5,a3,1161e <_vfprintf_r+0x1376>
   1161a:	j	104d0 <_vfprintf_r+0x228>
   1161e:	j	10810 <_vfprintf_r+0x568>
   11622:	add	a4,a4,a3
   11624:	addi	s9,s9,1
   11626:	sw	s2,0(s8)
   1162a:	j	107e2 <_vfprintf_r+0x53a>
   1162e:	mv	a0,s10
   11630:	sw	a7,8(sp)
   11632:	sw	a3,12(sp)
   11634:	jal	ra,15ff0 <strlen>
   11638:	lbu	a4,199(sp)
   1163c:	not	s7,a0
   11640:	srai	s7,s7,0x1f
   11644:	sw	zero,48(sp)
   11646:	sw	zero,52(sp)
   11648:	sw	zero,44(sp)
   1164a:	lw	a7,8(sp)
   1164c:	mv	s9,a0
   1164e:	and	s7,a0,s7
   11652:	li	s11,0
   11654:	li	t1,0
   11656:	beqz	a4,1165c <_vfprintf_r+0x13b4>
   11658:	j	10624 <_vfprintf_r+0x37c>
   1165c:	j	1043c <_vfprintf_r+0x194>
   11660:	lw	a5,252(sp)
   11662:	bltz	a5,11864 <_vfprintf_r+0x15bc>
   11666:	lbu	a4,199(sp)
   1166a:	li	a5,71
   1166e:	bge	a5,s8,11bb6 <_vfprintf_r+0x190e>
   11672:	lui	a5,0x1e
   11674:	addi	s10,a5,-1932 # 1d874 <__clzsi2+0x58>
   11678:	j	115b4 <_vfprintf_r+0x130c>
   1167a:	add	a4,a4,s9
   1167c:	addi	a3,a3,1
   1167e:	sw	s2,0(a7)
   11682:	sw	s9,4(a7)
   11686:	sw	a4,236(sp)
   11688:	sw	a3,232(sp)
   1168a:	li	a2,7
   1168c:	addi	a7,a7,8
   1168e:	bge	a2,a3,10e52 <_vfprintf_r+0xbaa>
   11692:	addi	a2,sp,228
   11694:	mv	a1,s4
   11696:	mv	a0,s5
   11698:	jal	ra,17d6a <__sprint_r>
   1169c:	bnez	a0,10d48 <_vfprintf_r+0xaa0>
   116a0:	lw	a4,236(sp)
   116a2:	mv	a7,s6
   116a4:	j	10e52 <_vfprintf_r+0xbaa>
   116a8:	lw	a5,16(sp)
   116aa:	li	t3,7
   116ac:	li	s9,16
   116ae:	add	a5,a5,s10
   116b0:	sw	a5,28(sp)
   116b2:	lw	a5,52(sp)
   116b4:	beqz	a5,1172c <_vfprintf_r+0x1484>
   116b6:	lw	a5,48(sp)
   116b8:	bnez	a5,11732 <_vfprintf_r+0x148a>
   116ba:	lw	a5,56(sp)
   116bc:	addi	a5,a5,-1
   116be:	sw	a5,56(sp)
   116c0:	lw	a5,52(sp)
   116c2:	addi	a5,a5,-1
   116c4:	sw	a5,52(sp)
   116c6:	lw	a3,76(sp)
   116c8:	lw	a5,72(sp)
   116ca:	addi	a7,a7,8
   116cc:	sw	a3,-8(a7)
   116d0:	lw	a3,232(sp)
   116d2:	add	a4,a4,a5
   116d4:	sw	a5,-4(a7)
   116d8:	addi	a3,a3,1
   116da:	sw	a4,236(sp)
   116dc:	sw	a3,232(sp)
   116de:	blt	t3,a3,1179e <_vfprintf_r+0x14f6>
   116e2:	lw	a5,56(sp)
   116e4:	lbu	a2,0(a5)
   116e8:	lw	a5,28(sp)
   116ea:	sub	a3,a5,s8
   116ee:	bge	a2,a3,116f4 <_vfprintf_r+0x144c>
   116f2:	mv	a3,a2
   116f4:	blez	a3,11716 <_vfprintf_r+0x146e>
   116f8:	lw	a2,232(sp)
   116fa:	add	a4,a4,a3
   116fc:	sw	s8,0(a7)
   11700:	addi	a2,a2,1
   11702:	sw	a3,4(a7)
   11706:	sw	a4,236(sp)
   11708:	sw	a2,232(sp)
   1170a:	blt	t3,a2,117b4 <_vfprintf_r+0x150c>
   1170e:	lw	a5,56(sp)
   11710:	addi	a7,a7,8
   11712:	lbu	a2,0(a5)
   11716:	not	a1,a3
   1171a:	srai	a1,a1,0x1f
   1171c:	and	a3,a3,a1
   1171e:	sub	a3,a2,a3
   11722:	bgtz	a3,1173a <_vfprintf_r+0x1492>
   11726:	add	s8,s8,a2
   11728:	lw	a5,52(sp)
   1172a:	bnez	a5,116b6 <_vfprintf_r+0x140e>
   1172c:	lw	a5,48(sp)
   1172e:	beqz	a5,11aca <_vfprintf_r+0x1822>
   11732:	lw	a5,48(sp)
   11734:	addi	a5,a5,-1
   11736:	sw	a5,48(sp)
   11738:	j	116c6 <_vfprintf_r+0x141e>
   1173a:	lw	a2,232(sp)
   1173c:	blt	s9,a3,11748 <_vfprintf_r+0x14a0>
   11740:	j	1177e <_vfprintf_r+0x14d6>
   11742:	addi	a3,a3,-16
   11744:	bge	s9,a3,1177e <_vfprintf_r+0x14d6>
   11748:	addi	a4,a4,16
   1174a:	addi	a2,a2,1
   1174c:	sw	s2,0(a7)
   11750:	sw	s9,4(a7)
   11754:	sw	a4,236(sp)
   11756:	sw	a2,232(sp)
   11758:	addi	a7,a7,8
   1175a:	bge	t3,a2,11742 <_vfprintf_r+0x149a>
   1175e:	addi	a2,sp,228
   11760:	mv	a1,s4
   11762:	mv	a0,s5
   11764:	sw	a3,8(sp)
   11766:	jal	ra,17d6a <__sprint_r>
   1176a:	bnez	a0,10d48 <_vfprintf_r+0xaa0>
   1176e:	lw	a3,8(sp)
   11770:	lw	a4,236(sp)
   11772:	lw	a2,232(sp)
   11774:	addi	a3,a3,-16
   11776:	mv	a7,s6
   11778:	li	t3,7
   1177a:	blt	s9,a3,11748 <_vfprintf_r+0x14a0>
   1177e:	add	a4,a4,a3
   11780:	addi	a2,a2,1
   11782:	sw	s2,0(a7)
   11786:	sw	a3,4(a7)
   1178a:	sw	a4,236(sp)
   1178c:	sw	a2,232(sp)
   1178e:	blt	t3,a2,11b56 <_vfprintf_r+0x18ae>
   11792:	lw	a5,56(sp)
   11794:	addi	a7,a7,8
   11796:	lbu	a2,0(a5)
   1179a:	add	s8,s8,a2
   1179c:	j	11728 <_vfprintf_r+0x1480>
   1179e:	addi	a2,sp,228
   117a0:	mv	a1,s4
   117a2:	mv	a0,s5
   117a4:	jal	ra,17d6a <__sprint_r>
   117a8:	bnez	a0,10d48 <_vfprintf_r+0xaa0>
   117ac:	lw	a4,236(sp)
   117ae:	mv	a7,s6
   117b0:	li	t3,7
   117b2:	j	116e2 <_vfprintf_r+0x143a>
   117b4:	addi	a2,sp,228
   117b6:	mv	a1,s4
   117b8:	mv	a0,s5
   117ba:	sw	a3,8(sp)
   117bc:	jal	ra,17d6a <__sprint_r>
   117c0:	bnez	a0,10d48 <_vfprintf_r+0xaa0>
   117c4:	lw	a5,56(sp)
   117c6:	lw	a4,236(sp)
   117c8:	lw	a3,8(sp)
   117ca:	lbu	a2,0(a5)
   117ce:	mv	a7,s6
   117d0:	li	t3,7
   117d2:	j	11716 <_vfprintf_r+0x146e>
   117d4:	li	a5,9
   117d6:	bltu	a5,s7,113e2 <_vfprintf_r+0x113a>
   117da:	j	10b6e <_vfprintf_r+0x8c6>
   117de:	addi	a2,sp,228
   117e0:	mv	a1,s4
   117e2:	mv	a0,s5
   117e4:	jal	ra,17d6a <__sprint_r>
   117e8:	bnez	a0,10d48 <_vfprintf_r+0xaa0>
   117ec:	lw	a1,204(sp)
   117ee:	lw	a4,236(sp)
   117f0:	mv	a7,s6
   117f2:	j	11516 <_vfprintf_r+0x126e>
   117f4:	lui	a5,0x1e
   117f6:	addi	s10,a5,-1944 # 1d868 <__clzsi2+0x4c>
   117fa:	j	115b4 <_vfprintf_r+0x130c>
   117fc:	addi	a2,sp,228
   117fe:	mv	a1,s4
   11800:	mv	a0,s5
   11802:	jal	ra,17d6a <__sprint_r>
   11806:	bnez	a0,10d48 <_vfprintf_r+0xaa0>
   1180a:	lw	a4,236(sp)
   1180c:	mv	a7,s6
   1180e:	j	10e3e <_vfprintf_r+0xb96>
   11812:	li	s9,6
   11814:	j	110c6 <_vfprintf_r+0xe1e>
   11816:	lw	a3,16(sp)
   11818:	add	a5,s10,a3
   1181c:	sub	s9,a3,s9
   11820:	sub	s10,a5,s8
   11824:	bge	s9,s10,10ec0 <_vfprintf_r+0xc18>
   11828:	mv	s10,s9
   1182a:	j	10ec0 <_vfprintf_r+0xc18>
   1182e:	lw	a5,12(sp)
   11830:	sw	a4,12(sp)
   11832:	lw	a4,4(sp)
   11834:	lw	a5,0(a5)
   11836:	mv	s10,s0
   11838:	sh	a4,0(a5)
   1183c:	j	10500 <_vfprintf_r+0x258>
   11840:	zext.b	s7,s7
   11844:	li	s9,0
   11846:	j	1105e <_vfprintf_r+0xdb6>
   1184a:	slli	s7,s7,0x18
   1184c:	srai	s7,s7,0x18
   11850:	srai	s9,s7,0x1f
   11854:	mv	a5,s9
   11856:	j	105e6 <_vfprintf_r+0x33e>
   1185a:	zext.b	s7,s7
   1185e:	li	s9,0
   11860:	j	10646 <_vfprintf_r+0x39e>
   11864:	li	a5,45
   11868:	sb	a5,199(sp)
   1186c:	li	a4,45
   11870:	j	1166a <_vfprintf_r+0x13c2>
   11872:	addi	a2,sp,228
   11874:	mv	a1,s4
   11876:	mv	a0,s5
   11878:	jal	ra,17d6a <__sprint_r>
   1187c:	j	10510 <_vfprintf_r+0x268>
   11880:	li	s11,0
   11882:	mv	s1,a4
   11884:	lui	a4,0x80000
   11888:	li	a5,45
   1188c:	xor	t4,a4,t4
   11890:	sw	a5,124(sp)
   11892:	j	11152 <_vfprintf_r+0xeaa>
   11894:	addi	a2,sp,228
   11896:	mv	a1,s4
   11898:	mv	a0,s5
   1189a:	jal	ra,17d6a <__sprint_r>
   1189e:	bnez	a0,10d48 <_vfprintf_r+0xaa0>
   118a2:	lw	a1,204(sp)
   118a4:	lw	a4,236(sp)
   118a6:	lw	a3,232(sp)
   118a8:	mv	a7,s6
   118aa:	j	115fe <_vfprintf_r+0x1356>
   118ac:	addi	a1,t1,1
   118b0:	mv	a0,s5
   118b2:	sw	a7,16(sp)
   118b4:	sw	t1,8(sp)
   118b6:	jal	ra,14b66 <_malloc_r>
   118ba:	lw	t1,8(sp)
   118bc:	lw	a7,16(sp)
   118be:	mv	s10,a0
   118c0:	beqz	a0,11ef6 <_vfprintf_r+0x1c4e>
   118c4:	mv	s11,a0
   118c6:	j	1113a <_vfprintf_r+0xe92>
   118c8:	addi	s9,sp,160
   118cc:	j	111dc <_vfprintf_r+0xf34>
   118ce:	addi	a3,t1,1
   118d2:	li	a2,2
   118d4:	j	11178 <_vfprintf_r+0xed0>
   118d6:	mv	a3,t1
   118d8:	li	a2,3
   118da:	j	11178 <_vfprintf_r+0xed0>
   118dc:	addi	s7,sp,176
   118e0:	mv	a0,s7
   118e2:	sw	a7,44(sp)
   118e4:	sw	t1,40(sp)
   118e6:	sw	t5,176(sp)
   118e8:	sw	t6,180(sp)
   118ea:	sw	t0,184(sp)
   118ec:	sw	t4,188(sp)
   118ee:	jal	ra,1d4a0 <__trunctfdf2>
   118f2:	addi	a0,sp,204
   118f4:	jal	ra,15d6a <frexp>
   118f8:	mv	a0,s7
   118fa:	jal	ra,1d326 <__extenddftf2>
   118fe:	lw	a4,176(sp)
   11900:	addi	a5,sp,144
   11902:	addi	s9,sp,160
   11906:	sw	a4,144(sp)
   11908:	lw	a4,180(sp)
   1190a:	addi	a2,sp,128
   1190c:	mv	a1,a5
   1190e:	sw	a4,148(sp)
   11910:	lw	a4,184(sp)
   11912:	mv	a0,s9
   11914:	sw	a5,8(sp)
   11916:	sw	a4,152(sp)
   11918:	lw	a4,188(sp)
   1191a:	sw	a2,112(sp)
   1191c:	sw	zero,128(sp)
   1191e:	sw	a4,156(sp)
   11920:	lui	a4,0x3ffc0
   11924:	sw	a4,140(sp)
   11926:	sw	zero,132(sp)
   11928:	sw	zero,136(sp)
   1192a:	jal	ra,1b2ce <__multf3>
   1192e:	lw	a6,160(sp)
   11930:	lw	t4,164(sp)
   11932:	lw	t5,168(sp)
   11934:	lw	t6,172(sp)
   11936:	mv	a1,s9
   11938:	mv	a0,s7
   1193a:	sw	a6,176(sp)
   1193c:	sw	a6,36(sp)
   1193e:	sw	t4,180(sp)
   11940:	sw	t4,32(sp)
   11942:	sw	t5,184(sp)
   11944:	sw	t5,28(sp)
   11946:	sw	t6,188(sp)
   11948:	sw	t6,16(sp)
   1194a:	sw	zero,160(sp)
   1194c:	sw	zero,164(sp)
   1194e:	sw	zero,168(sp)
   11950:	sw	zero,172(sp)
   11952:	jal	ra,1afec <__eqtf2>
   11956:	lw	t6,16(sp)
   11958:	lw	t5,28(sp)
   1195a:	lw	t4,32(sp)
   1195c:	lw	a6,36(sp)
   1195e:	lw	t1,40(sp)
   11960:	lw	a7,44(sp)
   11962:	bnez	a0,11968 <_vfprintf_r+0x16c0>
   11964:	li	a4,1
   11966:	sw	a4,204(sp)
   11968:	lui	a4,0x1e
   1196a:	addi	a5,a4,-1908 # 1d88c <__clzsi2+0x70>
   1196e:	sw	a5,96(sp)
   11970:	addi	a3,t1,-1
   11974:	mv	a4,s10
   11976:	j	119be <_vfprintf_r+0x1716>
   11978:	mv	a1,s9
   1197a:	mv	a0,s7
   1197c:	sw	a2,88(sp)
   1197e:	sw	t0,84(sp)
   11980:	sw	t2,80(sp)
   11982:	sw	a4,52(sp)
   11984:	sw	a7,48(sp)
   11986:	sw	t1,44(sp)
   11988:	sw	t2,176(sp)
   1198a:	sw	t2,40(sp)
   1198c:	sw	t0,180(sp)
   1198e:	sw	t0,36(sp)
   11990:	sw	a2,184(sp)
   11992:	sw	a2,32(sp)
   11994:	sw	t6,188(sp)
   11996:	sw	t6,28(sp)
   11998:	sw	zero,160(sp)
   1199a:	sw	zero,164(sp)
   1199c:	sw	zero,168(sp)
   1199e:	sw	zero,172(sp)
   119a0:	jal	ra,1afec <__eqtf2>
   119a4:	lw	a3,92(sp)
   119a6:	lw	t5,32(sp)
   119a8:	lw	t4,36(sp)
   119aa:	lw	a6,40(sp)
   119ac:	lw	t6,28(sp)
   119ae:	lw	t1,44(sp)
   119b0:	lw	a7,48(sp)
   119b2:	lw	a4,52(sp)
   119b4:	addi	a3,a3,-1
   119b6:	mv	t2,a6
   119b8:	mv	t0,t4
   119ba:	mv	a2,t5
   119bc:	beqz	a0,11a5e <_vfprintf_r+0x17b6>
   119be:	lw	a2,8(sp)
   119c0:	lui	a5,0x40030
   119c4:	mv	a1,s9
   119c6:	mv	a0,s7
   119c8:	sw	a4,80(sp)
   119ca:	sw	a7,52(sp)
   119cc:	sw	t1,48(sp)
   119ce:	sw	a3,44(sp)
   119d0:	sw	t6,172(sp)
   119d2:	sw	a5,156(sp)
   119d4:	sw	a6,160(sp)
   119d6:	sw	t4,164(sp)
   119d8:	sw	t5,168(sp)
   119da:	sw	zero,144(sp)
   119dc:	sw	zero,148(sp)
   119de:	sw	zero,152(sp)
   119e0:	jal	ra,1b2ce <__multf3>
   119e4:	lw	t5,176(sp)
   119e6:	lw	t4,180(sp)
   119e8:	lw	a6,184(sp)
   119ea:	lw	a2,188(sp)
   119ec:	mv	a0,s7
   119ee:	sw	t5,40(sp)
   119f0:	sw	t4,36(sp)
   119f2:	sw	a6,32(sp)
   119f4:	sw	a2,28(sp)
   119f6:	jal	ra,1d124 <__fixtfsi>
   119fa:	mv	a1,a0
   119fc:	sw	a0,16(sp)
   119fe:	mv	a0,s7
   11a00:	jal	ra,1d252 <__floatsitf>
   11a04:	lw	a2,28(sp)
   11a06:	lw	t5,40(sp)
   11a08:	lw	t4,36(sp)
   11a0a:	sw	a2,156(sp)
   11a0c:	lw	a2,176(sp)
   11a0e:	lw	a6,32(sp)
   11a10:	lw	a1,8(sp)
   11a12:	sw	a2,128(sp)
   11a14:	lw	a2,180(sp)
   11a16:	mv	a0,s9
   11a18:	sw	t5,144(sp)
   11a1a:	sw	a2,132(sp)
   11a1c:	lw	a2,184(sp)
   11a1e:	sw	t4,148(sp)
   11a20:	sw	a6,152(sp)
   11a22:	sw	a2,136(sp)
   11a24:	lw	a2,188(sp)
   11a26:	sw	a2,140(sp)
   11a28:	lw	a2,112(sp)
   11a2a:	jal	ra,1bfb6 <__subtf3>
   11a2e:	lw	a4,96(sp)
   11a30:	lw	a5,16(sp)
   11a32:	lw	t6,172(sp)
   11a34:	lw	a3,44(sp)
   11a36:	add	a2,a4,a5
   11a3a:	lbu	a1,0(a2)
   11a3e:	lw	a4,80(sp)
   11a40:	lw	t2,160(sp)
   11a42:	lw	t0,164(sp)
   11a44:	lw	a2,168(sp)
   11a46:	sw	a4,120(sp)
   11a48:	sb	a1,0(a4)
   11a4c:	sw	t6,108(sp)
   11a4e:	sw	a3,116(sp)
   11a50:	li	a5,-1
   11a52:	sw	a3,92(sp)
   11a54:	lw	t1,48(sp)
   11a56:	lw	a7,52(sp)
   11a58:	addi	a4,a4,1
   11a5a:	bne	a3,a5,11978 <_vfprintf_r+0x16d0>
   11a5e:	lw	a5,108(sp)
   11a60:	lui	a3,0x3ffe0
   11a64:	mv	a1,s9
   11a66:	mv	a0,s7
   11a68:	sw	a4,32(sp)
   11a6a:	sw	a7,28(sp)
   11a6c:	sw	t1,8(sp)
   11a6e:	sw	t2,176(sp)
   11a70:	sw	t2,44(sp)
   11a72:	sw	t0,180(sp)
   11a74:	sw	t0,40(sp)
   11a76:	sw	a2,184(sp)
   11a78:	sw	a2,36(sp)
   11a7a:	sw	a5,188(sp)
   11a7c:	sw	zero,160(sp)
   11a7e:	sw	zero,164(sp)
   11a80:	sw	zero,168(sp)
   11a82:	sw	a3,172(sp)
   11a84:	jal	ra,1b0d6 <__getf2>
   11a88:	lw	t1,8(sp)
   11a8a:	lw	a7,28(sp)
   11a8c:	lw	a4,32(sp)
   11a8e:	bgtz	a0,11ca8 <_vfprintf_r+0x1a00>
   11a92:	mv	a1,s9
   11a94:	mv	a0,s7
   11a96:	jal	ra,1afec <__eqtf2>
   11a9a:	lw	t1,8(sp)
   11a9c:	lw	a7,28(sp)
   11a9e:	lw	a4,32(sp)
   11aa0:	bnez	a0,11aac <_vfprintf_r+0x1804>
   11aa2:	lw	a5,16(sp)
   11aa4:	andi	a3,a5,1
   11aa8:	bnez	a3,11ca8 <_vfprintf_r+0x1a00>
   11aac:	lw	a5,116(sp)
   11aae:	li	a2,48
   11ab2:	addi	a3,a5,1 # 40030001 <__BSS_END__+0x400105c9>
   11ab6:	add	a3,a3,a4
   11ab8:	bltz	a5,1121e <_vfprintf_r+0xf76>
   11abc:	addi	a4,a4,1
   11abe:	sb	a2,-1(a4)
   11ac2:	bne	a3,a4,11abc <_vfprintf_r+0x1814>
   11ac6:	j	1121e <_vfprintf_r+0xf76>
   11aca:	lw	a5,16(sp)
   11acc:	add	a3,s10,a5
   11ad0:	bgeu	a3,s8,10e60 <_vfprintf_r+0xbb8>
   11ad4:	mv	s8,a3
   11ad6:	j	10e60 <_vfprintf_r+0xbb8>
   11ada:	lw	a5,44(sp)
   11adc:	li	a4,-3
   11ade:	blt	a5,a4,11ae6 <_vfprintf_r+0x183e>
   11ae2:	bge	t1,a5,11b02 <_vfprintf_r+0x185a>
   11ae6:	addi	s8,s8,-2
   11ae8:	andi	a5,s8,-33
   11aec:	sw	a5,100(sp)
   11aee:	j	1123c <_vfprintf_r+0xf94>
   11af2:	lbu	a4,199(sp)
   11af6:	li	t1,0
   11af8:	beqz	a4,11afe <_vfprintf_r+0x1856>
   11afa:	j	10624 <_vfprintf_r+0x37c>
   11afe:	j	1043c <_vfprintf_r+0x194>
   11b02:	lw	a5,16(sp)
   11b04:	lw	a4,44(sp)
   11b06:	blt	a4,a5,11c20 <_vfprintf_r+0x1978>
   11b0a:	lw	a5,104(sp)
   11b0c:	andi	a4,a5,1
   11b10:	lw	a5,44(sp)
   11b12:	mv	s9,a5
   11b14:	beqz	a4,11b1c <_vfprintf_r+0x1874>
   11b16:	lw	a4,60(sp)
   11b18:	add	s9,a5,a4
   11b1c:	lw	a5,104(sp)
   11b1e:	andi	a4,a5,1024
   11b22:	beqz	a4,11b2a <_vfprintf_r+0x1882>
   11b24:	lw	a5,44(sp)
   11b26:	bgtz	a5,11de0 <_vfprintf_r+0x1b38>
   11b2a:	not	s7,s9
   11b2e:	srai	s7,s7,0x1f
   11b32:	and	s7,s9,s7
   11b36:	li	s8,103
   11b3a:	sw	zero,48(sp)
   11b3c:	sw	zero,52(sp)
   11b3e:	j	1130e <_vfprintf_r+0x1066>
   11b42:	lw	a5,104(sp)
   11b44:	add	a6,a0,a3
   11b48:	andi	a4,a5,1
   11b4c:	bnez	a4,118c8 <_vfprintf_r+0x1620>
   11b50:	lw	a4,220(sp)
   11b52:	j	1121e <_vfprintf_r+0xf76>
   11b56:	addi	a2,sp,228
   11b58:	mv	a1,s4
   11b5a:	mv	a0,s5
   11b5c:	jal	ra,17d6a <__sprint_r>
   11b60:	bnez	a0,10d48 <_vfprintf_r+0xaa0>
   11b64:	lw	a5,56(sp)
   11b66:	lw	a4,236(sp)
   11b68:	mv	a7,s6
   11b6a:	lbu	a2,0(a5)
   11b6e:	li	t3,7
   11b70:	add	s8,s8,a2
   11b72:	j	11728 <_vfprintf_r+0x1480>
   11b74:	addi	a2,sp,228
   11b76:	mv	a1,s4
   11b78:	mv	a0,s5
   11b7a:	jal	ra,17d6a <__sprint_r>
   11b7e:	bnez	a0,10d48 <_vfprintf_r+0xaa0>
   11b82:	lw	s9,204(sp)
   11b84:	lw	a4,236(sp)
   11b86:	mv	a7,s6
   11b88:	j	10e8e <_vfprintf_r+0xbe6>
   11b8c:	li	a5,45
   11b90:	sb	a5,199(sp)
   11b94:	li	a4,45
   11b98:	j	115a6 <_vfprintf_r+0x12fe>
   11b9a:	lbu	a4,199(sp)
   11b9e:	sw	a3,12(sp)
   11ba0:	sw	zero,48(sp)
   11ba2:	sw	zero,52(sp)
   11ba4:	sw	zero,44(sp)
   11ba6:	mv	s7,t1
   11ba8:	mv	s9,t1
   11baa:	li	t1,0
   11bac:	beqz	a4,11bb2 <_vfprintf_r+0x190a>
   11bae:	j	10624 <_vfprintf_r+0x37c>
   11bb2:	j	1043c <_vfprintf_r+0x194>
   11bb6:	lui	a5,0x1e
   11bb8:	addi	s10,a5,-1936 # 1d870 <__clzsi2+0x54>
   11bbc:	j	115b4 <_vfprintf_r+0x130c>
   11bbe:	addi	a2,sp,228
   11bc0:	mv	a1,s4
   11bc2:	mv	a0,s5
   11bc4:	jal	ra,17d6a <__sprint_r>
   11bc8:	bnez	a0,10d48 <_vfprintf_r+0xaa0>
   11bcc:	lw	s9,204(sp)
   11bce:	lw	a5,16(sp)
   11bd0:	lw	a4,236(sp)
   11bd2:	mv	a7,s6
   11bd4:	sub	s9,a5,s9
   11bd8:	j	10ec0 <_vfprintf_r+0xc18>
   11bdc:	li	a2,-16
   11bde:	neg	s9,a1
   11be2:	bge	a1,a2,11cfa <_vfprintf_r+0x1a52>
   11be6:	li	a6,16
   11be8:	li	s8,7
   11bea:	j	11bf2 <_vfprintf_r+0x194a>
   11bec:	addi	s9,s9,-16
   11bee:	bge	a6,s9,11cfa <_vfprintf_r+0x1a52>
   11bf2:	addi	a4,a4,16
   11bf4:	addi	a3,a3,1
   11bf6:	sw	s2,0(a7)
   11bfa:	sw	a6,4(a7)
   11bfe:	sw	a4,236(sp)
   11c00:	sw	a3,232(sp)
   11c02:	addi	a7,a7,8
   11c04:	bge	s8,a3,11bec <_vfprintf_r+0x1944>
   11c08:	addi	a2,sp,228
   11c0a:	mv	a1,s4
   11c0c:	mv	a0,s5
   11c0e:	jal	ra,17d6a <__sprint_r>
   11c12:	bnez	a0,10d48 <_vfprintf_r+0xaa0>
   11c16:	lw	a4,236(sp)
   11c18:	lw	a3,232(sp)
   11c1a:	mv	a7,s6
   11c1c:	li	a6,16
   11c1e:	j	11bec <_vfprintf_r+0x1944>
   11c20:	lw	a5,16(sp)
   11c22:	lw	a4,60(sp)
   11c24:	li	s8,103
   11c28:	add	s9,a5,a4
   11c2c:	lw	a5,44(sp)
   11c2e:	blez	a5,11e8a <_vfprintf_r+0x1be2>
   11c32:	lw	a5,104(sp)
   11c34:	andi	a4,a5,1024
   11c38:	bnez	a4,11de4 <_vfprintf_r+0x1b3c>
   11c3c:	not	s7,s9
   11c40:	srai	s7,s7,0x1f
   11c44:	and	s7,s9,s7
   11c48:	j	11b3a <_vfprintf_r+0x1892>
   11c4a:	lw	a5,104(sp)
   11c4c:	andi	a4,a5,1
   11c50:	lw	a5,44(sp)
   11c52:	or	a4,a4,t1
   11c56:	blez	a5,11eac <_vfprintf_r+0x1c04>
   11c5a:	bnez	a4,11e9e <_vfprintf_r+0x1bf6>
   11c5e:	lw	s9,44(sp)
   11c60:	li	s8,102
   11c64:	j	11c32 <_vfprintf_r+0x198a>
   11c66:	lui	a3,0x1e
   11c68:	addi	t4,a3,-1360 # 1dab0 <blanks.1>
   11c6c:	j	10876 <_vfprintf_r+0x5ce>
   11c70:	li	a5,-1
   11c72:	sw	a5,4(sp)
   11c74:	j	1051e <_vfprintf_r+0x276>
   11c78:	addi	a3,sp,214
   11c7c:	bnez	a2,11c8a <_vfprintf_r+0x19e2>
   11c7e:	li	a3,48
   11c82:	sb	a3,214(sp)
   11c86:	addi	a3,sp,215
   11c8a:	addi	a5,sp,432
   11c8c:	sub	a2,a3,a5
   11c90:	addi	a4,a4,48
   11c94:	addi	a5,a2,221
   11c98:	sb	a4,0(a3)
   11c9c:	sw	a5,68(sp)
   11c9e:	j	112e0 <_vfprintf_r+0x1038>
   11ca2:	mv	a4,s1
   11ca4:	j	109ee <_vfprintf_r+0x746>
   11ca8:	lw	a5,120(sp)
   11caa:	mv	a3,a4
   11cac:	sw	a5,220(sp)
   11cae:	lw	a5,96(sp)
   11cb0:	lbu	a2,-1(a4)
   11cb4:	lbu	a1,15(a5)
   11cb8:	bne	a1,a2,11cd4 <_vfprintf_r+0x1a2c>
   11cbc:	li	a0,48
   11cc0:	sb	a0,-1(a3)
   11cc4:	lw	a3,220(sp)
   11cc6:	addi	a2,a3,-1
   11cca:	sw	a2,220(sp)
   11ccc:	lbu	a2,-1(a3)
   11cd0:	beq	a1,a2,11cc0 <_vfprintf_r+0x1a18>
   11cd4:	addi	a1,a2,1
   11cd8:	li	a0,57
   11cdc:	zext.b	a1,a1
   11ce0:	beq	a2,a0,11cec <_vfprintf_r+0x1a44>
   11ce4:	sb	a1,-1(a3)
   11ce8:	j	1121e <_vfprintf_r+0xf76>
   11cec:	lw	a5,96(sp)
   11cee:	lbu	a1,10(a5)
   11cf2:	sb	a1,-1(a3)
   11cf6:	j	1121e <_vfprintf_r+0xf76>
   11cfa:	add	a4,a4,s9
   11cfc:	addi	a3,a3,1
   11cfe:	sw	s2,0(a7)
   11d02:	sw	s9,4(a7)
   11d06:	sw	a4,236(sp)
   11d08:	sw	a3,232(sp)
   11d0a:	li	a2,7
   11d0c:	bge	a2,a3,11542 <_vfprintf_r+0x129a>
   11d10:	addi	a2,sp,228
   11d12:	mv	a1,s4
   11d14:	mv	a0,s5
   11d16:	jal	ra,17d6a <__sprint_r>
   11d1a:	beqz	a0,11d20 <_vfprintf_r+0x1a78>
   11d1c:	j	10d48 <_vfprintf_r+0xaa0>
   11d20:	lw	a4,236(sp)
   11d22:	lw	a3,232(sp)
   11d24:	mv	a7,s6
   11d26:	j	11602 <_vfprintf_r+0x135a>
   11d28:	lw	a5,104(sp)
   11d2a:	andi	a4,a5,1
   11d2e:	beqz	a4,112f2 <_vfprintf_r+0x104a>
   11d32:	j	112ee <_vfprintf_r+0x1046>
   11d36:	beqz	t1,11d3e <_vfprintf_r+0x1a96>
   11d3a:	j	10726 <_vfprintf_r+0x47e>
   11d3e:	li	t1,1
   11d40:	j	10726 <_vfprintf_r+0x47e>
   11d44:	li	t1,6
   11d46:	j	10726 <_vfprintf_r+0x47e>
   11d4a:	addi	s7,sp,176
   11d4e:	mv	a0,s7
   11d50:	sw	a7,44(sp)
   11d52:	sw	t1,40(sp)
   11d54:	sw	t5,176(sp)
   11d56:	sw	t6,180(sp)
   11d58:	sw	t0,184(sp)
   11d5a:	sw	t4,188(sp)
   11d5c:	jal	ra,1d4a0 <__trunctfdf2>
   11d60:	addi	a0,sp,204
   11d62:	jal	ra,15d6a <frexp>
   11d66:	mv	a0,s7
   11d68:	jal	ra,1d326 <__extenddftf2>
   11d6c:	lw	a4,176(sp)
   11d6e:	addi	a5,sp,144
   11d70:	addi	s9,sp,160
   11d74:	sw	a4,144(sp)
   11d76:	lw	a4,180(sp)
   11d78:	addi	a2,sp,128
   11d7a:	mv	a1,a5
   11d7c:	sw	a4,148(sp)
   11d7e:	lw	a4,184(sp)
   11d80:	mv	a0,s9
   11d82:	sw	a5,8(sp)
   11d84:	sw	a4,152(sp)
   11d86:	lw	a4,188(sp)
   11d88:	sw	a2,112(sp)
   11d8a:	sw	zero,128(sp)
   11d8c:	sw	a4,156(sp)
   11d8e:	lui	a4,0x3ffc0
   11d92:	sw	a4,140(sp)
   11d94:	sw	zero,132(sp)
   11d96:	sw	zero,136(sp)
   11d98:	jal	ra,1b2ce <__multf3>
   11d9c:	lw	a6,160(sp)
   11d9e:	lw	t4,164(sp)
   11da0:	lw	t5,168(sp)
   11da2:	lw	t6,172(sp)
   11da4:	mv	a1,s9
   11da6:	mv	a0,s7
   11da8:	sw	a6,176(sp)
   11daa:	sw	a6,36(sp)
   11dac:	sw	t4,180(sp)
   11dae:	sw	t4,32(sp)
   11db0:	sw	t5,184(sp)
   11db2:	sw	t5,28(sp)
   11db4:	sw	t6,188(sp)
   11db6:	sw	t6,16(sp)
   11db8:	sw	zero,160(sp)
   11dba:	sw	zero,164(sp)
   11dbc:	sw	zero,168(sp)
   11dbe:	sw	zero,172(sp)
   11dc0:	jal	ra,1afec <__eqtf2>
   11dc4:	lw	t6,16(sp)
   11dc6:	lw	t5,28(sp)
   11dc8:	lw	t4,32(sp)
   11dca:	lw	a6,36(sp)
   11dcc:	lw	t1,40(sp)
   11dce:	lw	a7,44(sp)
   11dd0:	bnez	a0,11dd6 <_vfprintf_r+0x1b2e>
   11dd2:	li	a4,1
   11dd4:	sw	a4,204(sp)
   11dd6:	lui	a4,0x1e
   11dd8:	addi	a5,a4,-1928 # 1d878 <__clzsi2+0x5c>
   11ddc:	sw	a5,96(sp)
   11dde:	j	11970 <_vfprintf_r+0x16c8>
   11de0:	li	s8,103
   11de4:	lw	a5,56(sp)
   11de6:	li	a3,255
   11dea:	sw	zero,48(sp)
   11dec:	lbu	a4,0(a5)
   11df0:	sw	zero,52(sp)
   11df2:	beq	a4,a3,11e22 <_vfprintf_r+0x1b7a>
   11df6:	lw	a5,44(sp)
   11df8:	bge	a4,a5,11e22 <_vfprintf_r+0x1b7a>
   11dfc:	sub	a5,a5,a4
   11dfe:	sw	a5,44(sp)
   11e00:	lw	a5,56(sp)
   11e02:	lbu	a4,1(a5)
   11e06:	beqz	a4,11e14 <_vfprintf_r+0x1b6c>
   11e08:	lw	a2,52(sp)
   11e0a:	addi	a5,a5,1
   11e0c:	sw	a5,56(sp)
   11e0e:	addi	a2,a2,1
   11e10:	sw	a2,52(sp)
   11e12:	j	11df2 <_vfprintf_r+0x1b4a>
   11e14:	lw	a5,56(sp)
   11e16:	lbu	a4,0(a5)
   11e1a:	lw	a5,48(sp)
   11e1c:	addi	a5,a5,1
   11e1e:	sw	a5,48(sp)
   11e20:	j	11df2 <_vfprintf_r+0x1b4a>
   11e22:	lw	a5,48(sp)
   11e24:	lw	a4,52(sp)
   11e26:	add	a4,a4,a5
   11e28:	lw	a5,72(sp)
   11e2a:	mul	a4,a4,a5
   11e2e:	add	s9,s9,a4
   11e30:	not	s7,s9
   11e34:	srai	s7,s7,0x1f
   11e38:	and	s7,s9,s7
   11e3c:	j	1130e <_vfprintf_r+0x1066>
   11e40:	addi	s9,sp,160
   11e44:	mv	a1,s9
   11e46:	mv	a0,s7
   11e48:	sw	a6,48(sp)
   11e4a:	sw	a7,40(sp)
   11e4c:	sw	t1,36(sp)
   11e4e:	sw	t5,176(sp)
   11e50:	sw	t5,32(sp)
   11e52:	sw	t6,180(sp)
   11e54:	sw	t6,28(sp)
   11e56:	sw	t0,184(sp)
   11e58:	sw	t0,16(sp)
   11e5a:	sw	t4,188(sp)
   11e5c:	sw	t4,8(sp)
   11e5e:	sw	a3,44(sp)
   11e60:	sw	zero,160(sp)
   11e62:	sw	zero,164(sp)
   11e64:	sw	zero,168(sp)
   11e66:	sw	zero,172(sp)
   11e68:	jal	ra,1afec <__eqtf2>
   11e6c:	lw	t4,8(sp)
   11e6e:	lw	t0,16(sp)
   11e70:	lw	t6,28(sp)
   11e72:	lw	t5,32(sp)
   11e74:	lw	t1,36(sp)
   11e76:	lw	a7,40(sp)
   11e78:	lw	a6,48(sp)
   11e7a:	beqz	a0,111d8 <_vfprintf_r+0xf30>
   11e7e:	lw	a3,44(sp)
   11e80:	li	a4,1
   11e82:	sub	a4,a4,a3
   11e84:	sw	a4,204(sp)
   11e86:	j	111da <_vfprintf_r+0xf32>
   11e8a:	sub	s9,s9,a5
   11e8e:	addi	s9,s9,1
   11e90:	not	s7,s9
   11e94:	srai	s7,s7,0x1f
   11e98:	and	s7,s9,s7
   11e9c:	j	11b3a <_vfprintf_r+0x1892>
   11e9e:	lw	a4,60(sp)
   11ea0:	li	s8,102
   11ea4:	add	s9,a5,a4
   11ea8:	add	s9,s9,t1
   11eaa:	j	11c32 <_vfprintf_r+0x198a>
   11eac:	bnez	a4,11eb8 <_vfprintf_r+0x1c10>
   11eae:	li	s7,1
   11eb0:	li	s8,102
   11eb4:	li	s9,1
   11eb6:	j	11b3a <_vfprintf_r+0x1892>
   11eb8:	lw	a5,60(sp)
   11eba:	li	s8,102
   11ebe:	addi	s9,a5,1
   11ec2:	add	s9,s9,t1
   11ec4:	not	s7,s9
   11ec8:	srai	s7,s7,0x1f
   11ecc:	and	s7,s9,s7
   11ed0:	j	11b3a <_vfprintf_r+0x1892>
   11ed2:	li	a5,2
   11ed4:	sw	a5,68(sp)
   11ed6:	j	112e0 <_vfprintf_r+0x1038>
   11eda:	lw	a5,12(sp)
   11edc:	lw	t1,0(a5)
   11ee0:	addi	s8,a5,4
   11ee4:	bgez	t1,11eea <_vfprintf_r+0x1c42>
   11ee8:	li	t1,-1
   11eea:	lbu	t3,1(s0)
   11eee:	sw	s8,12(sp)
   11ef0:	mv	s0,a3
   11ef2:	j	103e0 <_vfprintf_r+0x138>
   11ef6:	lhu	a5,12(s4)
   11efa:	ori	a5,a5,64
   11efe:	sh	a5,12(s4)
   11f02:	j	10510 <_vfprintf_r+0x268>

00011f06 <vfprintf>:
   11f06:	mv	a5,a0
   11f08:	lw	a0,448(gp) # 1f9d0 <_impure_ptr>
   11f0c:	mv	a3,a2
   11f0e:	mv	a2,a1
   11f10:	mv	a1,a5
   11f12:	j	102a8 <_vfprintf_r>

00011f16 <__sbprintf>:
   11f16:	lhu	a5,12(a1)
   11f1a:	lw	t3,100(a1)
   11f1e:	lhu	t1,14(a1)
   11f22:	lw	a7,28(a1)
   11f26:	lw	a6,36(a1)
   11f2a:	addi	sp,sp,-1152
   11f2e:	andi	a5,a5,-3
   11f30:	li	a4,1024
   11f34:	sw	s0,1144(sp)
   11f38:	sh	a5,20(sp)
   11f3c:	mv	s0,a1
   11f3e:	addi	a5,sp,112
   11f40:	addi	a1,sp,8
   11f42:	sw	s1,1140(sp)
   11f46:	sw	s2,1136(sp)
   11f4a:	sw	ra,1148(sp)
   11f4e:	mv	s2,a0
   11f50:	sw	t3,108(sp)
   11f52:	sh	t1,22(sp)
   11f56:	sw	a7,36(sp)
   11f58:	sw	a6,44(sp)
   11f5a:	sw	a5,8(sp)
   11f5c:	sw	a5,24(sp)
   11f5e:	sw	a4,16(sp)
   11f60:	sw	a4,28(sp)
   11f62:	sw	zero,32(sp)
   11f64:	jal	ra,102a8 <_vfprintf_r>
   11f68:	mv	s1,a0
   11f6a:	bgez	a0,11f9c <__sbprintf+0x86>
   11f6e:	lhu	a5,20(sp)
   11f72:	andi	a5,a5,64
   11f76:	beqz	a5,11f84 <__sbprintf+0x6e>
   11f78:	lhu	a5,12(s0)
   11f7c:	ori	a5,a5,64
   11f80:	sh	a5,12(s0)
   11f84:	lw	ra,1148(sp)
   11f88:	lw	s0,1144(sp)
   11f8c:	lw	s2,1136(sp)
   11f90:	mv	a0,s1
   11f92:	lw	s1,1140(sp)
   11f96:	addi	sp,sp,1152
   11f9a:	ret
   11f9c:	addi	a1,sp,8
   11f9e:	mv	a0,s2
   11fa0:	jal	122fa <_fflush_r>
   11fa2:	beqz	a0,11f6e <__sbprintf+0x58>
   11fa4:	li	s1,-1
   11fa6:	j	11f6e <__sbprintf+0x58>

00011fa8 <__swsetup_r>:
   11fa8:	lw	a5,448(gp) # 1f9d0 <_impure_ptr>
   11fac:	addi	sp,sp,-16
   11fae:	sw	s0,8(sp)
   11fb0:	sw	s1,4(sp)
   11fb2:	sw	ra,12(sp)
   11fb4:	mv	s1,a0
   11fb6:	mv	s0,a1
   11fb8:	beqz	a5,11fbe <__swsetup_r+0x16>
   11fba:	lw	a4,56(a5)
   11fbc:	beqz	a4,12014 <__swsetup_r+0x6c>
   11fbe:	lh	a4,12(s0)
   11fc2:	slli	a5,a4,0x10
   11fc6:	andi	a3,a4,8
   11fca:	srli	a5,a5,0x10
   11fcc:	beqz	a3,12028 <__swsetup_r+0x80>
   11fce:	lw	a3,16(s0)
   11fd0:	beqz	a3,12044 <__swsetup_r+0x9c>
   11fd2:	andi	a2,a5,1
   11fd6:	beqz	a2,11ff2 <__swsetup_r+0x4a>
   11fd8:	lw	a2,20(s0)
   11fda:	sw	zero,8(s0)
   11fde:	li	a0,0
   11fe0:	neg	a2,a2
   11fe4:	sw	a2,24(s0)
   11fe6:	beqz	a3,12002 <__swsetup_r+0x5a>
   11fe8:	lw	ra,12(sp)
   11fea:	lw	s0,8(sp)
   11fec:	lw	s1,4(sp)
   11fee:	addi	sp,sp,16
   11ff0:	ret
   11ff2:	andi	a2,a5,2
   11ff6:	li	a1,0
   11ff8:	bnez	a2,11ffc <__swsetup_r+0x54>
   11ffa:	lw	a1,20(s0)
   11ffc:	sw	a1,8(s0)
   11ffe:	li	a0,0
   12000:	bnez	a3,11fe8 <__swsetup_r+0x40>
   12002:	andi	a5,a5,128
   12006:	beqz	a5,11fe8 <__swsetup_r+0x40>
   12008:	ori	a4,a4,64
   1200c:	sh	a4,12(s0)
   12010:	li	a0,-1
   12012:	j	11fe8 <__swsetup_r+0x40>
   12014:	mv	a0,a5
   12016:	jal	125de <__sinit>
   12018:	lh	a4,12(s0)
   1201c:	slli	a5,a4,0x10
   12020:	andi	a3,a4,8
   12024:	srli	a5,a5,0x10
   12026:	bnez	a3,11fce <__swsetup_r+0x26>
   12028:	andi	a3,a5,16
   1202c:	beqz	a3,1208c <__swsetup_r+0xe4>
   1202e:	andi	a5,a5,4
   12030:	bnez	a5,12066 <__swsetup_r+0xbe>
   12032:	lw	a3,16(s0)
   12034:	ori	a4,a4,8
   12038:	slli	a5,a4,0x10
   1203c:	sh	a4,12(s0)
   12040:	srli	a5,a5,0x10
   12042:	bnez	a3,11fd2 <__swsetup_r+0x2a>
   12044:	andi	a2,a5,640
   12048:	li	a1,512
   1204c:	beq	a2,a1,11fd2 <__swsetup_r+0x2a>
   12050:	mv	a1,s0
   12052:	mv	a0,s1
   12054:	jal	ra,149d2 <__smakebuf_r>
   12058:	lh	a4,12(s0)
   1205c:	lw	a3,16(s0)
   1205e:	slli	a5,a4,0x10
   12062:	srli	a5,a5,0x10
   12064:	j	11fd2 <__swsetup_r+0x2a>
   12066:	lw	a1,48(s0)
   12068:	beqz	a1,1207e <__swsetup_r+0xd6>
   1206a:	addi	a5,s0,64
   1206e:	beq	a1,a5,1207a <__swsetup_r+0xd2>
   12072:	mv	a0,s1
   12074:	jal	12706 <_free_r>
   12076:	lh	a4,12(s0)
   1207a:	sw	zero,48(s0)
   1207e:	lw	a3,16(s0)
   12080:	andi	a4,a4,-37
   12084:	sw	zero,4(s0)
   12088:	sw	a3,0(s0)
   1208a:	j	12034 <__swsetup_r+0x8c>
   1208c:	li	a5,9
   1208e:	sw	a5,0(s1)
   12090:	ori	a4,a4,64
   12094:	sh	a4,12(s0)
   12098:	li	a0,-1
   1209a:	j	11fe8 <__swsetup_r+0x40>

0001209c <__call_exitprocs>:
   1209c:	addi	sp,sp,-48
   1209e:	sw	s4,24(sp)
   120a0:	lw	s4,440(gp) # 1f9c8 <_global_impure_ptr>
   120a4:	sw	s2,32(sp)
   120a6:	sw	ra,44(sp)
   120a8:	lw	s2,328(s4)
   120ac:	sw	s0,40(sp)
   120ae:	sw	s1,36(sp)
   120b0:	sw	s3,28(sp)
   120b2:	sw	s5,20(sp)
   120b4:	sw	s6,16(sp)
   120b6:	sw	s7,12(sp)
   120b8:	sw	s8,8(sp)
   120ba:	beqz	s2,120ea <__call_exitprocs+0x4e>
   120be:	mv	s6,a0
   120c0:	mv	s7,a1
   120c2:	li	s5,1
   120c4:	li	s3,-1
   120c6:	lw	s1,4(s2)
   120ca:	addi	s0,s1,-1
   120ce:	bltz	s0,120ea <__call_exitprocs+0x4e>
   120d2:	slli	s1,s1,0x2
   120d4:	add	s1,s1,s2
   120d6:	beqz	s7,12102 <__call_exitprocs+0x66>
   120da:	lw	a5,260(s1)
   120de:	beq	a5,s7,12102 <__call_exitprocs+0x66>
   120e2:	addi	s0,s0,-1
   120e4:	addi	s1,s1,-4
   120e6:	bne	s0,s3,120d6 <__call_exitprocs+0x3a>
   120ea:	lw	ra,44(sp)
   120ec:	lw	s0,40(sp)
   120ee:	lw	s1,36(sp)
   120f0:	lw	s2,32(sp)
   120f2:	lw	s3,28(sp)
   120f4:	lw	s4,24(sp)
   120f6:	lw	s5,20(sp)
   120f8:	lw	s6,16(sp)
   120fa:	lw	s7,12(sp)
   120fc:	lw	s8,8(sp)
   120fe:	addi	sp,sp,48
   12100:	ret
   12102:	lw	a5,4(s2)
   12106:	lw	a3,4(s1)
   12108:	addi	a5,a5,-1
   1210a:	beq	a5,s0,1214e <__call_exitprocs+0xb2>
   1210e:	sw	zero,4(s1)
   12112:	beqz	a3,120e2 <__call_exitprocs+0x46>
   12114:	lw	a5,392(s2)
   12118:	sll	a4,s5,s0
   1211c:	lw	s8,4(s2)
   12120:	and	a5,a5,a4
   12122:	bnez	a5,1213c <__call_exitprocs+0xa0>
   12124:	jalr	a3
   12126:	lw	a4,4(s2)
   1212a:	lw	a5,328(s4)
   1212e:	bne	a4,s8,12136 <__call_exitprocs+0x9a>
   12132:	beq	a5,s2,120e2 <__call_exitprocs+0x46>
   12136:	beqz	a5,120ea <__call_exitprocs+0x4e>
   12138:	mv	s2,a5
   1213a:	j	120c6 <__call_exitprocs+0x2a>
   1213c:	lw	a5,396(s2)
   12140:	lw	a1,132(s1)
   12144:	and	a4,a4,a5
   12146:	bnez	a4,12154 <__call_exitprocs+0xb8>
   12148:	mv	a0,s6
   1214a:	jalr	a3
   1214c:	j	12126 <__call_exitprocs+0x8a>
   1214e:	sw	s0,4(s2)
   12152:	j	12112 <__call_exitprocs+0x76>
   12154:	mv	a0,a1
   12156:	jalr	a3
   12158:	j	12126 <__call_exitprocs+0x8a>

0001215a <atexit>:
   1215a:	mv	a1,a0
   1215c:	li	a3,0
   1215e:	li	a2,0
   12160:	li	a0,0
   12162:	j	18b92 <__register_exitproc>

00012166 <__sflush_r>:
   12166:	lh	a5,12(a1)
   1216a:	addi	sp,sp,-32
   1216c:	sw	s0,24(sp)
   1216e:	sw	s3,12(sp)
   12170:	sw	ra,28(sp)
   12172:	sw	s1,20(sp)
   12174:	sw	s2,16(sp)
   12176:	andi	a3,a5,8
   1217a:	mv	s0,a1
   1217c:	mv	s3,a0
   1217e:	bnez	a3,12232 <__sflush_r+0xcc>
   12180:	lui	a4,0x1
   12182:	addi	a4,a4,-2048 # 800 <register_fini-0xf874>
   12186:	lw	a3,4(a1)
   12188:	or	a5,a5,a4
   1218a:	sh	a5,12(a1)
   1218e:	blez	a3,1228e <__sflush_r+0x128>
   12192:	lw	a4,40(s0)
   12194:	beqz	a4,12222 <__sflush_r+0xbc>
   12196:	slli	a5,a5,0x10
   12198:	srli	a5,a5,0x10
   1219a:	lui	a3,0x1
   1219c:	lw	s1,0(s3)
   121a0:	and	a3,a3,a5
   121a2:	sw	zero,0(s3)
   121a6:	lw	a1,28(s0)
   121a8:	bnez	a3,12296 <__sflush_r+0x130>
   121aa:	li	a3,1
   121ac:	li	a2,0
   121ae:	mv	a0,s3
   121b0:	jalr	a4
   121b2:	li	a5,-1
   121b4:	beq	a0,a5,122c4 <__sflush_r+0x15e>
   121b8:	lhu	a5,12(s0)
   121bc:	lw	a4,40(s0)
   121be:	lw	a1,28(s0)
   121c0:	andi	a5,a5,4
   121c2:	beqz	a5,121d0 <__sflush_r+0x6a>
   121c4:	lw	a3,4(s0)
   121c6:	lw	a5,48(s0)
   121c8:	sub	a0,a0,a3
   121ca:	beqz	a5,121d0 <__sflush_r+0x6a>
   121cc:	lw	a5,60(s0)
   121ce:	sub	a0,a0,a5
   121d0:	mv	a2,a0
   121d2:	li	a3,0
   121d4:	mv	a0,s3
   121d6:	jalr	a4
   121d8:	li	a5,-1
   121da:	bne	a0,a5,1229a <__sflush_r+0x134>
   121de:	lw	a4,0(s3)
   121e2:	lh	a5,12(s0)
   121e6:	beqz	a4,122e6 <__sflush_r+0x180>
   121ea:	li	a3,29
   121ec:	beq	a4,a3,121f6 <__sflush_r+0x90>
   121f0:	li	a3,22
   121f2:	bne	a4,a3,12278 <__sflush_r+0x112>
   121f6:	lw	a3,16(s0)
   121f8:	lui	a4,0xfffff
   121fa:	addi	a4,a4,2047 # fffff7ff <__BSS_END__+0xfffdfdc7>
   121fe:	and	a5,a5,a4
   12200:	sh	a5,12(s0)
   12204:	sw	zero,4(s0)
   12208:	sw	a3,0(s0)
   1220a:	lw	a1,48(s0)
   1220c:	sw	s1,0(s3)
   12210:	beqz	a1,12222 <__sflush_r+0xbc>
   12212:	addi	a5,s0,64
   12216:	beq	a1,a5,1221e <__sflush_r+0xb8>
   1221a:	mv	a0,s3
   1221c:	jal	12706 <_free_r>
   1221e:	sw	zero,48(s0)
   12222:	li	a0,0
   12224:	lw	ra,28(sp)
   12226:	lw	s0,24(sp)
   12228:	lw	s1,20(sp)
   1222a:	lw	s2,16(sp)
   1222c:	lw	s3,12(sp)
   1222e:	addi	sp,sp,32
   12230:	ret
   12232:	lw	s2,16(a1)
   12236:	beqz	s2,12222 <__sflush_r+0xbc>
   1223a:	lw	s1,0(a1)
   1223c:	slli	a4,a5,0x10
   12240:	srli	a4,a4,0x10
   12242:	andi	a4,a4,3
   12244:	sw	s2,0(a1)
   12248:	sub	s1,s1,s2
   1224c:	li	a5,0
   1224e:	bnez	a4,12252 <__sflush_r+0xec>
   12250:	lw	a5,20(a1)
   12252:	sw	a5,8(s0)
   12254:	bgtz	s1,12260 <__sflush_r+0xfa>
   12258:	j	12222 <__sflush_r+0xbc>
   1225a:	add	s2,s2,a0
   1225c:	blez	s1,12222 <__sflush_r+0xbc>
   12260:	lw	a5,36(s0)
   12262:	lw	a1,28(s0)
   12264:	mv	a3,s1
   12266:	mv	a2,s2
   12268:	mv	a0,s3
   1226a:	jalr	a5
   1226c:	sub	s1,s1,a0
   1226e:	bgtz	a0,1225a <__sflush_r+0xf4>
   12272:	lhu	a5,12(s0)
   12276:	li	a0,-1
   12278:	ori	a5,a5,64
   1227c:	lw	ra,28(sp)
   1227e:	sh	a5,12(s0)
   12282:	lw	s0,24(sp)
   12284:	lw	s1,20(sp)
   12286:	lw	s2,16(sp)
   12288:	lw	s3,12(sp)
   1228a:	addi	sp,sp,32
   1228c:	ret
   1228e:	lw	a4,60(a1)
   12290:	bgtz	a4,12192 <__sflush_r+0x2c>
   12294:	j	12222 <__sflush_r+0xbc>
   12296:	lw	a0,80(s0)
   12298:	j	121c0 <__sflush_r+0x5a>
   1229a:	lhu	a5,12(s0)
   1229e:	lui	a4,0xfffff
   122a0:	addi	a4,a4,2047 # fffff7ff <__BSS_END__+0xfffdfdc7>
   122a4:	and	a5,a5,a4
   122a6:	lw	a3,16(s0)
   122a8:	slli	a5,a5,0x10
   122aa:	srai	a5,a5,0x10
   122ac:	srli	a4,a5,0xc
   122b0:	sh	a5,12(s0)
   122b4:	sw	zero,4(s0)
   122b8:	sw	a3,0(s0)
   122ba:	andi	a5,a4,1
   122be:	beqz	a5,1220a <__sflush_r+0xa4>
   122c0:	sw	a0,80(s0)
   122c2:	j	1220a <__sflush_r+0xa4>
   122c4:	lw	a5,0(s3)
   122c8:	beqz	a5,121b8 <__sflush_r+0x52>
   122cc:	li	a4,29
   122ce:	beq	a5,a4,122f2 <__sflush_r+0x18c>
   122d2:	li	a4,22
   122d4:	beq	a5,a4,122f2 <__sflush_r+0x18c>
   122d8:	lhu	a5,12(s0)
   122dc:	ori	a5,a5,64
   122e0:	sh	a5,12(s0)
   122e4:	j	12224 <__sflush_r+0xbe>
   122e6:	lui	a4,0xfffff
   122e8:	addi	a4,a4,2047 # fffff7ff <__BSS_END__+0xfffdfdc7>
   122ec:	lw	a3,16(s0)
   122ee:	and	a5,a5,a4
   122f0:	j	122ac <__sflush_r+0x146>
   122f2:	sw	s1,0(s3)
   122f6:	li	a0,0
   122f8:	j	12224 <__sflush_r+0xbe>

000122fa <_fflush_r>:
   122fa:	addi	sp,sp,-32
   122fc:	sw	s0,24(sp)
   122fe:	sw	ra,28(sp)
   12300:	mv	s0,a0
   12302:	beqz	a0,12308 <_fflush_r+0xe>
   12304:	lw	a5,56(a0)
   12306:	beqz	a5,12318 <_fflush_r+0x1e>
   12308:	lh	a5,12(a1)
   1230c:	bnez	a5,12324 <_fflush_r+0x2a>
   1230e:	lw	ra,28(sp)
   12310:	lw	s0,24(sp)
   12312:	li	a0,0
   12314:	addi	sp,sp,32
   12316:	ret
   12318:	sw	a1,12(sp)
   1231a:	jal	125de <__sinit>
   1231c:	lw	a1,12(sp)
   1231e:	lh	a5,12(a1)
   12322:	beqz	a5,1230e <_fflush_r+0x14>
   12324:	mv	a0,s0
   12326:	lw	s0,24(sp)
   12328:	lw	ra,28(sp)
   1232a:	addi	sp,sp,32
   1232c:	j	12166 <__sflush_r>

0001232e <fflush>:
   1232e:	beqz	a0,1236a <fflush+0x3c>
   12330:	addi	sp,sp,-32
   12332:	sw	s0,24(sp)
   12334:	mv	s0,a0
   12336:	lw	a0,448(gp) # 1f9d0 <_impure_ptr>
   1233a:	sw	ra,28(sp)
   1233c:	beqz	a0,12342 <fflush+0x14>
   1233e:	lw	a5,56(a0)
   12340:	beqz	a5,1235c <fflush+0x2e>
   12342:	lh	a5,12(s0)
   12346:	bnez	a5,12352 <fflush+0x24>
   12348:	lw	ra,28(sp)
   1234a:	lw	s0,24(sp)
   1234c:	li	a0,0
   1234e:	addi	sp,sp,32
   12350:	ret
   12352:	mv	a1,s0
   12354:	lw	s0,24(sp)
   12356:	lw	ra,28(sp)
   12358:	addi	sp,sp,32
   1235a:	j	12166 <__sflush_r>
   1235c:	sw	a0,12(sp)
   1235e:	jal	125de <__sinit>
   12360:	lh	a5,12(s0)
   12364:	lw	a0,12(sp)
   12366:	beqz	a5,12348 <fflush+0x1a>
   12368:	j	12352 <fflush+0x24>
   1236a:	lw	a0,440(gp) # 1f9c8 <_global_impure_ptr>
   1236e:	lui	a1,0x12
   12370:	addi	a1,a1,762 # 122fa <_fflush_r>
   12374:	j	1299e <_fwalk_reent>

00012376 <__fp_lock>:
   12376:	li	a0,0
   12378:	ret

0001237a <_cleanup_r>:
   1237a:	lui	a1,0x19
   1237c:	addi	a1,a1,-732 # 18d24 <_fclose_r>
   12380:	j	1299e <_fwalk_reent>

00012382 <__fp_unlock>:
   12382:	li	a0,0
   12384:	ret

00012386 <__sinit.part.0>:
   12386:	addi	sp,sp,-32
   12388:	lui	a5,0x12
   1238a:	sw	ra,28(sp)
   1238c:	sw	s0,24(sp)
   1238e:	sw	s1,20(sp)
   12390:	sw	s2,16(sp)
   12392:	sw	s3,12(sp)
   12394:	sw	s4,8(sp)
   12396:	sw	s5,4(sp)
   12398:	sw	s6,0(sp)
   1239a:	lw	s0,4(a0)
   1239c:	addi	a5,a5,890 # 1237a <_cleanup_r>
   123a0:	sw	a5,60(a0)
   123a2:	addi	a4,a0,748
   123a6:	li	a5,3
   123a8:	sw	a4,744(a0)
   123ac:	sw	a5,740(a0)
   123b0:	sw	zero,736(a0)
   123b4:	li	a5,4
   123b6:	mv	s2,a0
   123b8:	sw	a5,12(s0)
   123ba:	li	a2,8
   123bc:	li	a1,0
   123be:	sw	zero,100(s0)
   123c2:	sw	zero,0(s0)
   123c6:	sw	zero,4(s0)
   123ca:	sw	zero,8(s0)
   123ce:	sw	zero,16(s0)
   123d2:	sw	zero,20(s0)
   123d6:	sw	zero,24(s0)
   123da:	addi	a0,s0,92
   123de:	jal	ra,101b6 <memset>
   123e2:	lui	s6,0x16
   123e4:	lw	s1,8(s2)
   123e8:	lui	s5,0x16
   123ea:	lui	s4,0x16
   123ec:	lui	s3,0x16
   123ee:	addi	s6,s6,-354 # 15e9e <__sread>
   123f2:	addi	s5,s5,-294 # 15eda <__swrite>
   123f6:	addi	s4,s4,-210 # 15f2e <__sseek>
   123fa:	addi	s3,s3,-144 # 15f70 <__sclose>
   123fe:	lui	a5,0x10
   12400:	sw	s6,32(s0)
   12404:	sw	s5,36(s0)
   12408:	sw	s4,40(s0)
   1240c:	sw	s3,44(s0)
   12410:	sw	s0,28(s0)
   12412:	addi	a5,a5,9
   12414:	sw	a5,12(s1)
   12416:	li	a2,8
   12418:	li	a1,0
   1241a:	sw	zero,100(s1)
   1241e:	sw	zero,0(s1)
   12422:	sw	zero,4(s1)
   12426:	sw	zero,8(s1)
   1242a:	sw	zero,16(s1)
   1242e:	sw	zero,20(s1)
   12432:	sw	zero,24(s1)
   12436:	addi	a0,s1,92
   1243a:	jal	ra,101b6 <memset>
   1243e:	lw	s0,12(s2)
   12442:	lui	a5,0x20
   12446:	sw	s6,32(s1)
   1244a:	sw	s5,36(s1)
   1244e:	sw	s4,40(s1)
   12452:	sw	s3,44(s1)
   12456:	sw	s1,28(s1)
   12458:	addi	a5,a5,18
   1245a:	sw	a5,12(s0)
   1245c:	sw	zero,100(s0)
   12460:	sw	zero,0(s0)
   12464:	sw	zero,4(s0)
   12468:	sw	zero,8(s0)
   1246c:	sw	zero,16(s0)
   12470:	sw	zero,20(s0)
   12474:	sw	zero,24(s0)
   12478:	addi	a0,s0,92
   1247c:	li	a2,8
   1247e:	li	a1,0
   12480:	jal	ra,101b6 <memset>
   12484:	lw	ra,28(sp)
   12486:	sw	s6,32(s0)
   1248a:	sw	s5,36(s0)
   1248e:	sw	s4,40(s0)
   12492:	sw	s3,44(s0)
   12496:	sw	s0,28(s0)
   12498:	lw	s0,24(sp)
   1249a:	li	a5,1
   1249c:	sw	a5,56(s2)
   124a0:	lw	s1,20(sp)
   124a2:	lw	s2,16(sp)
   124a4:	lw	s3,12(sp)
   124a6:	lw	s4,8(sp)
   124a8:	lw	s5,4(sp)
   124aa:	lw	s6,0(sp)
   124ac:	addi	sp,sp,32
   124ae:	ret

000124b0 <__sfmoreglue>:
   124b0:	addi	sp,sp,-16
   124b2:	sw	s1,4(sp)
   124b4:	li	a5,104
   124b8:	addi	s1,a1,-1
   124bc:	mul	s1,s1,a5
   124c0:	sw	s2,0(sp)
   124c2:	mv	s2,a1
   124c4:	sw	s0,8(sp)
   124c6:	sw	ra,12(sp)
   124c8:	addi	a1,s1,116
   124cc:	jal	ra,14b66 <_malloc_r>
   124d0:	mv	s0,a0
   124d2:	beqz	a0,124ea <__sfmoreglue+0x3a>
   124d4:	addi	a0,a0,12
   124d6:	sw	zero,0(s0)
   124da:	sw	s2,4(s0)
   124de:	sw	a0,8(s0)
   124e0:	addi	a2,s1,104
   124e4:	li	a1,0
   124e6:	jal	ra,101b6 <memset>
   124ea:	lw	ra,12(sp)
   124ec:	mv	a0,s0
   124ee:	lw	s0,8(sp)
   124f0:	lw	s1,4(sp)
   124f2:	lw	s2,0(sp)
   124f4:	addi	sp,sp,16
   124f6:	ret

000124f8 <__sfp>:
   124f8:	addi	sp,sp,-32
   124fa:	sw	s2,16(sp)
   124fc:	lw	s2,440(gp) # 1f9c8 <_global_impure_ptr>
   12500:	sw	s3,12(sp)
   12502:	sw	ra,28(sp)
   12504:	lw	a5,56(s2)
   12508:	sw	s0,24(sp)
   1250a:	sw	s1,20(sp)
   1250c:	sw	s4,8(sp)
   1250e:	mv	s3,a0
   12510:	beqz	a5,12594 <__sfp+0x9c>
   12512:	addi	s2,s2,736
   12516:	li	s1,-1
   12518:	li	s4,4
   1251a:	lw	a5,4(s2)
   1251e:	lw	s0,8(s2)
   12522:	addi	a5,a5,-1
   12524:	bgez	a5,12532 <__sfp+0x3a>
   12528:	j	1258a <__sfp+0x92>
   1252a:	addi	s0,s0,104
   1252e:	beq	a5,s1,1258a <__sfp+0x92>
   12532:	lh	a4,12(s0)
   12536:	addi	a5,a5,-1
   12538:	bnez	a4,1252a <__sfp+0x32>
   1253a:	lui	a5,0xffff0
   1253c:	addi	a5,a5,1
   1253e:	sw	zero,100(s0)
   12542:	sw	zero,0(s0)
   12546:	sw	zero,4(s0)
   1254a:	sw	zero,8(s0)
   1254e:	sw	a5,12(s0)
   12550:	sw	zero,16(s0)
   12554:	sw	zero,20(s0)
   12558:	sw	zero,24(s0)
   1255c:	li	a2,8
   1255e:	li	a1,0
   12560:	addi	a0,s0,92
   12564:	jal	ra,101b6 <memset>
   12568:	sw	zero,48(s0)
   1256c:	sw	zero,52(s0)
   12570:	sw	zero,68(s0)
   12574:	sw	zero,72(s0)
   12578:	lw	ra,28(sp)
   1257a:	mv	a0,s0
   1257c:	lw	s0,24(sp)
   1257e:	lw	s1,20(sp)
   12580:	lw	s2,16(sp)
   12582:	lw	s3,12(sp)
   12584:	lw	s4,8(sp)
   12586:	addi	sp,sp,32
   12588:	ret
   1258a:	lw	s0,0(s2)
   1258e:	beqz	s0,1259a <__sfp+0xa2>
   12590:	mv	s2,s0
   12592:	j	1251a <__sfp+0x22>
   12594:	mv	a0,s2
   12596:	jal	12386 <__sinit.part.0>
   12598:	j	12512 <__sfp+0x1a>
   1259a:	li	a1,428
   1259e:	mv	a0,s3
   125a0:	jal	ra,14b66 <_malloc_r>
   125a4:	mv	s0,a0
   125a6:	beqz	a0,125c6 <__sfp+0xce>
   125a8:	addi	a0,a0,12
   125aa:	sw	zero,0(s0)
   125ae:	sw	s4,4(s0)
   125b2:	sw	a0,8(s0)
   125b4:	li	a2,416
   125b8:	li	a1,0
   125ba:	jal	ra,101b6 <memset>
   125be:	sw	s0,0(s2)
   125c2:	mv	s2,s0
   125c4:	j	1251a <__sfp+0x22>
   125c6:	sw	zero,0(s2)
   125ca:	li	a5,12
   125cc:	sw	a5,0(s3)
   125d0:	j	12578 <__sfp+0x80>

000125d2 <_cleanup>:
   125d2:	lw	a0,440(gp) # 1f9c8 <_global_impure_ptr>
   125d6:	lui	a1,0x19
   125d8:	addi	a1,a1,-732 # 18d24 <_fclose_r>
   125dc:	j	1299e <_fwalk_reent>

000125de <__sinit>:
   125de:	lw	a5,56(a0)
   125e0:	beqz	a5,125e4 <__sinit+0x6>
   125e2:	ret
   125e4:	j	12386 <__sinit.part.0>

000125e6 <__sfp_lock_acquire>:
   125e6:	ret

000125e8 <__sfp_lock_release>:
   125e8:	ret

000125ea <__sinit_lock_acquire>:
   125ea:	ret

000125ec <__sinit_lock_release>:
   125ec:	ret

000125ee <__fp_lock_all>:
   125ee:	lw	a0,448(gp) # 1f9d0 <_impure_ptr>
   125f2:	lui	a1,0x12
   125f4:	addi	a1,a1,886 # 12376 <__fp_lock>
   125f8:	j	12932 <_fwalk>

000125fa <__fp_unlock_all>:
   125fa:	lw	a0,448(gp) # 1f9d0 <_impure_ptr>
   125fe:	lui	a1,0x12
   12600:	addi	a1,a1,898 # 12382 <__fp_unlock>
   12604:	j	12932 <_fwalk>

00012606 <__libc_fini_array>:
   12606:	addi	sp,sp,-16
   12608:	sw	s0,8(sp)
   1260a:	lui	a5,0x1f
   1260e:	lui	s0,0x1f
   12612:	addi	a5,a5,12 # 1f00c <__do_global_dtors_aux_fini_array_entry>
   12616:	addi	s0,s0,16 # 1f010 <impure_data>
   1261a:	sub	s0,s0,a5
   1261c:	sw	s1,4(sp)
   1261e:	sw	ra,12(sp)
   12620:	srai	s1,s0,0x2
   12624:	beqz	s1,12634 <__libc_fini_array+0x2e>
   12626:	addi	s0,s0,-4
   12628:	add	s0,s0,a5
   1262a:	lw	a5,0(s0)
   1262c:	addi	s1,s1,-1
   1262e:	addi	s0,s0,-4
   12630:	jalr	a5
   12632:	bnez	s1,1262a <__libc_fini_array+0x24>
   12634:	lw	ra,12(sp)
   12636:	lw	s0,8(sp)
   12638:	lw	s1,4(sp)
   1263a:	addi	sp,sp,16
   1263c:	ret

0001263e <_malloc_trim_r>:
   1263e:	addi	sp,sp,-32
   12640:	sw	s3,12(sp)
   12642:	sw	s0,24(sp)
   12644:	sw	s1,20(sp)
   12646:	sw	s2,16(sp)
   12648:	sw	s4,8(sp)
   1264a:	sw	ra,28(sp)
   1264c:	mv	s4,a1
   1264e:	mv	s2,a0
   12650:	addi	s3,gp,-984 # 1f438 <__malloc_av_>
   12654:	jal	ra,1519e <__malloc_lock>
   12658:	lw	a4,8(s3)
   1265c:	lui	a5,0x1
   1265e:	addi	s0,a5,-17 # fef <register_fini-0xf085>
   12662:	lw	s1,4(a4)
   12664:	sub	s0,s0,s4
   12668:	andi	s1,s1,-4
   1266a:	add	s0,s0,s1
   1266c:	srli	s0,s0,0xc
   1266e:	addi	s0,s0,-1
   12670:	slli	s0,s0,0xc
   12672:	blt	s0,a5,12688 <_malloc_trim_r+0x4a>
   12676:	li	a1,0
   12678:	mv	a0,s2
   1267a:	jal	ra,15de0 <_sbrk_r>
   1267e:	lw	a5,8(s3)
   12682:	add	a5,a5,s1
   12684:	beq	a0,a5,126a0 <_malloc_trim_r+0x62>
   12688:	mv	a0,s2
   1268a:	jal	ra,151a0 <__malloc_unlock>
   1268e:	lw	ra,28(sp)
   12690:	lw	s0,24(sp)
   12692:	lw	s1,20(sp)
   12694:	lw	s2,16(sp)
   12696:	lw	s3,12(sp)
   12698:	lw	s4,8(sp)
   1269a:	li	a0,0
   1269c:	addi	sp,sp,32
   1269e:	ret
   126a0:	neg	a1,s0
   126a4:	mv	a0,s2
   126a6:	jal	ra,15de0 <_sbrk_r>
   126aa:	li	a5,-1
   126ac:	beq	a0,a5,126de <_malloc_trim_r+0xa0>
   126b0:	addi	a5,gp,512 # 1fa10 <__malloc_current_mallinfo>
   126b4:	lw	a4,0(a5)
   126b6:	lw	a3,8(s3)
   126ba:	sub	s1,s1,s0
   126bc:	ori	s1,s1,1
   126c0:	sub	a4,a4,s0
   126c2:	mv	a0,s2
   126c4:	sw	s1,4(a3)
   126c6:	sw	a4,0(a5)
   126c8:	jal	ra,151a0 <__malloc_unlock>
   126cc:	lw	ra,28(sp)
   126ce:	lw	s0,24(sp)
   126d0:	lw	s1,20(sp)
   126d2:	lw	s2,16(sp)
   126d4:	lw	s3,12(sp)
   126d6:	lw	s4,8(sp)
   126d8:	li	a0,1
   126da:	addi	sp,sp,32
   126dc:	ret
   126de:	li	a1,0
   126e0:	mv	a0,s2
   126e2:	jal	ra,15de0 <_sbrk_r>
   126e6:	lw	a4,8(s3)
   126ea:	li	a3,15
   126ec:	sub	a5,a0,a4
   126f0:	bge	a3,a5,12688 <_malloc_trim_r+0x4a>
   126f4:	lw	a3,452(gp) # 1f9d4 <__malloc_sbrk_base>
   126f8:	ori	a5,a5,1
   126fc:	sw	a5,4(a4)
   126fe:	sub	a0,a0,a3
   12700:	sw	a0,512(gp) # 1fa10 <__malloc_current_mallinfo>
   12704:	j	12688 <_malloc_trim_r+0x4a>

00012706 <_free_r>:
   12706:	beqz	a1,127e0 <_free_r+0xda>
   12708:	addi	sp,sp,-16
   1270a:	sw	s0,8(sp)
   1270c:	sw	s1,4(sp)
   1270e:	mv	s0,a1
   12710:	mv	s1,a0
   12712:	sw	ra,12(sp)
   12714:	jal	ra,1519e <__malloc_lock>
   12718:	lw	a6,-4(s0)
   1271c:	addi	a4,s0,-8
   12720:	andi	a5,a6,-2
   12724:	add	a2,a4,a5
   12728:	addi	a1,gp,-984 # 1f438 <__malloc_av_>
   1272c:	lw	a3,4(a2)
   1272e:	lw	a0,8(a1)
   12730:	andi	a3,a3,-4
   12732:	beq	a0,a2,1286a <_free_r+0x164>
   12736:	sw	a3,4(a2)
   12738:	andi	a6,a6,1
   1273c:	add	a0,a2,a3
   12740:	bnez	a6,127b6 <_free_r+0xb0>
   12744:	lw	t1,-8(s0)
   12748:	lw	a6,4(a0)
   1274c:	sub	a4,a4,t1
   12750:	lw	a7,8(a4)
   12754:	addi	a0,gp,-976 # 1f440 <__malloc_av_+0x8>
   12758:	add	a5,a5,t1
   1275a:	andi	a6,a6,1
   1275e:	beq	a7,a0,12844 <_free_r+0x13e>
   12762:	lw	t1,12(a4)
   12766:	sw	t1,12(a7)
   1276a:	sw	a7,8(t1)
   1276e:	beqz	a6,128bc <_free_r+0x1b6>
   12772:	ori	a3,a5,1
   12776:	sw	a3,4(a4)
   12778:	sw	a5,0(a2)
   1277a:	li	a3,511
   1277e:	bltu	a3,a5,127f4 <_free_r+0xee>
   12782:	andi	a3,a5,-8
   12786:	addi	a3,a3,8
   12788:	lw	a0,4(a1)
   1278a:	add	a3,a3,a1
   1278c:	lw	a2,0(a3)
   1278e:	srli	a6,a5,0x5
   12792:	li	a5,1
   12794:	sll	a5,a5,a6
   12798:	or	a5,a5,a0
   1279a:	addi	a0,a3,-8 # ff8 <register_fini-0xf07c>
   1279e:	sw	a0,12(a4)
   127a0:	sw	a2,8(a4)
   127a2:	sw	a5,4(a1)
   127a4:	sw	a4,0(a3)
   127a6:	sw	a4,12(a2)
   127a8:	lw	s0,8(sp)
   127aa:	lw	ra,12(sp)
   127ac:	mv	a0,s1
   127ae:	lw	s1,4(sp)
   127b0:	addi	sp,sp,16
   127b2:	j	151a0 <__malloc_unlock>
   127b6:	lw	a0,4(a0)
   127b8:	andi	a0,a0,1
   127ba:	bnez	a0,127e2 <_free_r+0xdc>
   127bc:	add	a5,a5,a3
   127be:	addi	a0,gp,-976 # 1f440 <__malloc_av_+0x8>
   127c2:	lw	a3,8(a2)
   127c4:	ori	a7,a5,1
   127c8:	add	a6,a4,a5
   127cc:	beq	a3,a0,128cc <_free_r+0x1c6>
   127d0:	lw	a2,12(a2)
   127d2:	sw	a2,12(a3)
   127d4:	sw	a3,8(a2)
   127d6:	sw	a7,4(a4)
   127da:	sw	a5,0(a6)
   127de:	j	1277a <_free_r+0x74>
   127e0:	ret
   127e2:	ori	a3,a5,1
   127e6:	sw	a3,-4(s0)
   127ea:	sw	a5,0(a2)
   127ec:	li	a3,511
   127f0:	bgeu	a3,a5,12782 <_free_r+0x7c>
   127f4:	srli	a3,a5,0x9
   127f8:	li	a2,4
   127fa:	bltu	a2,a3,1289e <_free_r+0x198>
   127fe:	srli	a3,a5,0x6
   12802:	addi	a6,a3,57
   12806:	addi	a2,a3,56
   1280a:	slli	a6,a6,0x3
   1280c:	add	a6,a6,a1
   1280e:	lw	a3,0(a6)
   12812:	addi	a6,a6,-8
   12814:	beq	a6,a3,128de <_free_r+0x1d8>
   12818:	lw	a2,4(a3)
   1281a:	andi	a2,a2,-4
   1281c:	bgeu	a5,a2,12826 <_free_r+0x120>
   12820:	lw	a3,8(a3)
   12822:	bne	a6,a3,12818 <_free_r+0x112>
   12826:	lw	a6,12(a3)
   1282a:	sw	a6,12(a4)
   1282e:	sw	a3,8(a4)
   12830:	lw	s0,8(sp)
   12832:	lw	ra,12(sp)
   12834:	sw	a4,8(a6)
   12838:	mv	a0,s1
   1283a:	lw	s1,4(sp)
   1283c:	sw	a4,12(a3)
   1283e:	addi	sp,sp,16
   12840:	j	151a0 <__malloc_unlock>
   12844:	bnez	a6,12928 <_free_r+0x222>
   12848:	lw	a1,12(a2)
   1284a:	lw	a2,8(a2)
   1284c:	add	a3,a3,a5
   1284e:	lw	s0,8(sp)
   12850:	sw	a1,12(a2)
   12852:	sw	a2,8(a1)
   12854:	ori	a5,a3,1
   12858:	lw	ra,12(sp)
   1285a:	sw	a5,4(a4)
   1285c:	mv	a0,s1
   1285e:	add	a4,a4,a3
   12860:	lw	s1,4(sp)
   12862:	sw	a3,0(a4)
   12864:	addi	sp,sp,16
   12866:	j	151a0 <__malloc_unlock>
   1286a:	andi	a6,a6,1
   1286e:	add	a3,a3,a5
   12870:	bnez	a6,12884 <_free_r+0x17e>
   12874:	lw	a0,-8(s0)
   12878:	sub	a4,a4,a0
   1287a:	lw	a5,12(a4)
   1287c:	lw	a2,8(a4)
   1287e:	add	a3,a3,a0
   12880:	sw	a5,12(a2)
   12882:	sw	a2,8(a5)
   12884:	ori	a2,a3,1
   12888:	lw	a5,456(gp) # 1f9d8 <__malloc_trim_threshold>
   1288c:	sw	a2,4(a4)
   1288e:	sw	a4,8(a1)
   12890:	bltu	a3,a5,127a8 <_free_r+0xa2>
   12894:	lw	a1,468(gp) # 1f9e4 <__malloc_top_pad>
   12898:	mv	a0,s1
   1289a:	jal	1263e <_malloc_trim_r>
   1289c:	j	127a8 <_free_r+0xa2>
   1289e:	li	a2,20
   128a0:	bgeu	a2,a3,128c0 <_free_r+0x1ba>
   128a4:	li	a2,84
   128a8:	bltu	a2,a3,128ee <_free_r+0x1e8>
   128ac:	srli	a3,a5,0xc
   128b0:	addi	a6,a3,111
   128b4:	addi	a2,a3,110
   128b8:	slli	a6,a6,0x3
   128ba:	j	1280c <_free_r+0x106>
   128bc:	add	a5,a5,a3
   128be:	j	127c2 <_free_r+0xbc>
   128c0:	addi	a6,a3,92
   128c4:	addi	a2,a3,91
   128c8:	slli	a6,a6,0x3
   128ca:	j	1280c <_free_r+0x106>
   128cc:	sw	a4,20(a1)
   128ce:	sw	a4,16(a1)
   128d0:	sw	a0,12(a4)
   128d2:	sw	a0,8(a4)
   128d4:	sw	a7,4(a4)
   128d8:	sw	a5,0(a6)
   128dc:	j	127a8 <_free_r+0xa2>
   128de:	lw	a0,4(a1)
   128e0:	srai	a2,a2,0x2
   128e2:	li	a5,1
   128e4:	sll	a5,a5,a2
   128e8:	or	a5,a5,a0
   128ea:	sw	a5,4(a1)
   128ec:	j	1282a <_free_r+0x124>
   128ee:	li	a2,340
   128f2:	bltu	a2,a3,12906 <_free_r+0x200>
   128f6:	srli	a3,a5,0xf
   128fa:	addi	a6,a3,120
   128fe:	addi	a2,a3,119
   12902:	slli	a6,a6,0x3
   12904:	j	1280c <_free_r+0x106>
   12906:	li	a2,1364
   1290a:	bltu	a2,a3,1291e <_free_r+0x218>
   1290e:	srli	a3,a5,0x12
   12912:	addi	a6,a3,125
   12916:	addi	a2,a3,124
   1291a:	slli	a6,a6,0x3
   1291c:	j	1280c <_free_r+0x106>
   1291e:	li	a6,1016
   12922:	li	a2,126
   12926:	j	1280c <_free_r+0x106>
   12928:	ori	a3,a5,1
   1292c:	sw	a3,4(a4)
   1292e:	sw	a5,0(a2)
   12930:	j	127a8 <_free_r+0xa2>

00012932 <_fwalk>:
   12932:	addi	sp,sp,-32
   12934:	sw	s2,16(sp)
   12936:	sw	s3,12(sp)
   12938:	sw	s4,8(sp)
   1293a:	sw	s5,4(sp)
   1293c:	sw	s6,0(sp)
   1293e:	sw	ra,28(sp)
   12940:	sw	s0,24(sp)
   12942:	sw	s1,20(sp)
   12944:	mv	s6,a1
   12946:	addi	s5,a0,736
   1294a:	li	s4,0
   1294c:	li	s3,1
   1294e:	li	s2,-1
   12950:	lw	s1,4(s5)
   12954:	lw	s0,8(s5)
   12958:	addi	s1,s1,-1
   1295a:	bltz	s1,12980 <_fwalk+0x4e>
   1295e:	lhu	a5,12(s0)
   12962:	addi	s1,s1,-1
   12964:	bgeu	s3,a5,12978 <_fwalk+0x46>
   12968:	lh	a5,14(s0)
   1296c:	mv	a0,s0
   1296e:	beq	a5,s2,12978 <_fwalk+0x46>
   12972:	jalr	s6
   12974:	or	s4,s4,a0
   12978:	addi	s0,s0,104
   1297c:	bne	s1,s2,1295e <_fwalk+0x2c>
   12980:	lw	s5,0(s5)
   12984:	bnez	s5,12950 <_fwalk+0x1e>
   12988:	lw	ra,28(sp)
   1298a:	lw	s0,24(sp)
   1298c:	lw	s1,20(sp)
   1298e:	lw	s2,16(sp)
   12990:	lw	s3,12(sp)
   12992:	lw	s5,4(sp)
   12994:	lw	s6,0(sp)
   12996:	mv	a0,s4
   12998:	lw	s4,8(sp)
   1299a:	addi	sp,sp,32
   1299c:	ret

0001299e <_fwalk_reent>:
   1299e:	addi	sp,sp,-48
   129a0:	sw	s2,32(sp)
   129a2:	sw	s3,28(sp)
   129a4:	sw	s4,24(sp)
   129a6:	sw	s5,20(sp)
   129a8:	sw	s6,16(sp)
   129aa:	sw	s7,12(sp)
   129ac:	sw	ra,44(sp)
   129ae:	sw	s0,40(sp)
   129b0:	sw	s1,36(sp)
   129b2:	mv	s5,a0
   129b4:	mv	s7,a1
   129b6:	addi	s6,a0,736
   129ba:	li	s4,0
   129bc:	li	s3,1
   129be:	li	s2,-1
   129c0:	lw	s1,4(s6)
   129c4:	lw	s0,8(s6)
   129c8:	addi	s1,s1,-1
   129ca:	bltz	s1,129f2 <_fwalk_reent+0x54>
   129ce:	lhu	a5,12(s0)
   129d2:	addi	s1,s1,-1
   129d4:	bgeu	s3,a5,129ea <_fwalk_reent+0x4c>
   129d8:	lh	a5,14(s0)
   129dc:	mv	a1,s0
   129de:	mv	a0,s5
   129e0:	beq	a5,s2,129ea <_fwalk_reent+0x4c>
   129e4:	jalr	s7
   129e6:	or	s4,s4,a0
   129ea:	addi	s0,s0,104
   129ee:	bne	s1,s2,129ce <_fwalk_reent+0x30>
   129f2:	lw	s6,0(s6)
   129f6:	bnez	s6,129c0 <_fwalk_reent+0x22>
   129fa:	lw	ra,44(sp)
   129fc:	lw	s0,40(sp)
   129fe:	lw	s1,36(sp)
   12a00:	lw	s2,32(sp)
   12a02:	lw	s3,28(sp)
   12a04:	lw	s5,20(sp)
   12a06:	lw	s6,16(sp)
   12a08:	lw	s7,12(sp)
   12a0a:	mv	a0,s4
   12a0c:	lw	s4,24(sp)
   12a0e:	addi	sp,sp,48
   12a10:	ret

00012a12 <eshdn1>:
   12a12:	addi	a3,a0,4
   12a16:	li	a5,0
   12a18:	addi	a0,a0,26
   12a1a:	lui	a6,0xffff8
   12a1c:	j	12a2e <eshdn1+0x1c>
   12a1e:	slli	a5,a5,0x1
   12a20:	sh	a4,0(a3)
   12a24:	slli	a5,a5,0x10
   12a26:	addi	a3,a3,2
   12a28:	srli	a5,a5,0x10
   12a2a:	beq	a0,a3,12a58 <eshdn1+0x46>
   12a2e:	lhu	a4,0(a3)
   12a32:	andi	a2,a4,1
   12a36:	beqz	a2,12a3c <eshdn1+0x2a>
   12a38:	ori	a5,a5,1
   12a3c:	srli	a4,a4,0x1
   12a3e:	andi	a2,a5,2
   12a42:	or	a1,a4,a6
   12a46:	beqz	a2,12a1e <eshdn1+0xc>
   12a48:	slli	a5,a5,0x1
   12a4a:	sh	a1,0(a3)
   12a4e:	slli	a5,a5,0x10
   12a50:	addi	a3,a3,2
   12a52:	srli	a5,a5,0x10
   12a54:	bne	a0,a3,12a2e <eshdn1+0x1c>
   12a58:	ret

00012a5a <eshup1>:
   12a5a:	addi	a3,a0,24
   12a5e:	li	a4,0
   12a60:	addi	a0,a0,2
   12a62:	j	12a74 <eshup1+0x1a>
   12a64:	slli	a4,a4,0x1
   12a66:	sh	a5,0(a3)
   12a6a:	slli	a4,a4,0x10
   12a6c:	addi	a3,a3,-2
   12a6e:	srli	a4,a4,0x10
   12a70:	beq	a0,a3,12aa6 <eshup1+0x4c>
   12a74:	lhu	a5,0(a3)
   12a78:	slli	a2,a5,0x10
   12a7c:	srai	a2,a2,0x10
   12a7e:	slli	a5,a5,0x1
   12a80:	bgez	a2,12a88 <eshup1+0x2e>
   12a84:	ori	a4,a4,1
   12a88:	slli	a5,a5,0x10
   12a8a:	srli	a5,a5,0x10
   12a8c:	andi	a2,a4,2
   12a90:	ori	a1,a5,1
   12a94:	beqz	a2,12a64 <eshup1+0xa>
   12a96:	slli	a4,a4,0x1
   12a98:	sh	a1,0(a3)
   12a9c:	slli	a4,a4,0x10
   12a9e:	addi	a3,a3,-2
   12aa0:	srli	a4,a4,0x10
   12aa2:	bne	a0,a3,12a74 <eshup1+0x1a>
   12aa6:	ret

00012aa8 <m16m>:
   12aa8:	addi	sp,sp,-32
   12aaa:	lui	t3,0x10
   12aac:	sh	zero,26(sp)
   12ab0:	sh	zero,28(sp)
   12ab4:	addi	a1,a1,24
   12ab6:	addi	a5,sp,28
   12ab8:	addi	a6,sp,8
   12abc:	addi	t3,t3,-1
   12abe:	lhu	a4,0(a1)
   12ac2:	addi	a5,a5,-2
   12ac4:	addi	a1,a1,-2
   12ac6:	beqz	a4,12aee <m16m+0x46>
   12ac8:	mul	a4,a4,a0
   12acc:	lhu	a7,2(a5)
   12ad0:	lhu	t1,0(a5)
   12ad4:	and	a3,a4,t3
   12ad8:	add	a3,a3,a7
   12ada:	srli	a4,a4,0x10
   12adc:	srli	a7,a3,0x10
   12ae0:	add	a4,a4,t1
   12ae2:	add	a4,a4,a7
   12ae4:	sh	a4,0(a5)
   12ae8:	sh	a3,2(a5)
   12aec:	srli	a4,a4,0x10
   12aee:	sh	a4,-2(a5)
   12af2:	bne	a5,a6,12abe <m16m+0x16>
   12af6:	addi	a2,a2,4
   12af8:	addi	a3,sp,30
   12afc:	lhu	a4,0(a5)
   12b00:	addi	a5,a5,2
   12b02:	addi	a2,a2,2
   12b04:	sh	a4,-2(a2)
   12b08:	bne	a5,a3,12afc <m16m+0x54>
   12b0c:	addi	sp,sp,32
   12b0e:	ret

00012b10 <emovo.constprop.0>:
   12b10:	lhu	a4,0(a0)
   12b14:	lhu	a5,2(a0)
   12b18:	beqz	a4,12b1e <emovo.constprop.0+0xe>
   12b1a:	lui	a4,0x8
   12b1c:	or	a5,a5,a4
   12b1e:	sh	a5,18(a1)
   12b22:	lhu	a4,2(a0)
   12b26:	lui	a5,0x8
   12b28:	addi	a5,a5,-1
   12b2a:	beq	a4,a5,12b48 <emovo.constprop.0+0x38>
   12b2e:	addi	a5,a0,6
   12b32:	addi	a1,a1,16
   12b34:	addi	a0,a0,24
   12b36:	lhu	a4,0(a5) # 8000 <register_fini-0x8074>
   12b3a:	addi	a5,a5,2
   12b3c:	addi	a1,a1,-2
   12b3e:	sh	a4,2(a1)
   12b42:	bne	a5,a0,12b36 <emovo.constprop.0+0x26>
   12b46:	ret
   12b48:	addi	a5,a0,6
   12b4c:	addi	a0,a0,26
   12b4e:	lhu	a4,0(a5)
   12b52:	addi	a5,a5,2
   12b54:	bnez	a4,12b7a <emovo.constprop.0+0x6a>
   12b56:	bne	a5,a0,12b4e <emovo.constprop.0+0x3e>
   12b5a:	addi	a4,a1,18
   12b5e:	mv	a5,a1
   12b60:	addi	a5,a5,2
   12b62:	sh	zero,-2(a5)
   12b66:	bne	a4,a5,12b60 <emovo.constprop.0+0x50>
   12b6a:	lhu	a5,18(a1)
   12b6e:	lui	a4,0x8
   12b70:	addi	a4,a4,-1
   12b72:	or	a5,a5,a4
   12b74:	sh	a5,18(a1)
   12b78:	ret
   12b7a:	addi	a4,a1,16
   12b7e:	mv	a5,a1
   12b80:	addi	a5,a5,2
   12b82:	sh	zero,-2(a5)
   12b86:	bne	a4,a5,12b80 <emovo.constprop.0+0x70>
   12b8a:	lui	a5,0xffffc
   12b8c:	sh	a5,16(a1)
   12b90:	lui	a5,0xffff8
   12b92:	not	a5,a5
   12b96:	sh	a5,18(a1)
   12b9a:	ret

00012b9c <enormlz>:
   12b9c:	lhu	a5,4(a0)
   12ba0:	addi	sp,sp,-16
   12ba2:	sw	s1,4(sp)
   12ba4:	sw	ra,12(sp)
   12ba6:	sw	s0,8(sp)
   12ba8:	sw	s2,0(sp)
   12baa:	mv	s1,a0
   12bac:	bnez	a5,12c4c <enormlz+0xb0>
   12bae:	lhu	a4,6(a0)
   12bb2:	li	s0,0
   12bb4:	slli	a5,a4,0x10
   12bb8:	srai	a5,a5,0x10
   12bba:	bltz	a5,12c3e <enormlz+0xa2>
   12bbe:	addi	a3,a0,26
   12bc2:	li	a2,160
   12bc6:	bnez	a4,12bec <enormlz+0x50>
   12bc8:	addi	a5,s1,6
   12bcc:	j	12bd2 <enormlz+0x36>
   12bce:	lhu	a4,0(a5) # ffff8000 <__BSS_END__+0xfffd85c8>
   12bd2:	addi	a5,a5,2
   12bd4:	sh	a4,-4(a5)
   12bd8:	bne	a5,a3,12bce <enormlz+0x32>
   12bdc:	sh	zero,24(s1)
   12be0:	addi	s0,s0,16
   12be2:	beq	s0,a2,12c3e <enormlz+0xa2>
   12be6:	lhu	a4,6(s1)
   12bea:	beqz	a4,12bc8 <enormlz+0x2c>
   12bec:	andi	a5,a4,-256
   12bf0:	bnez	a5,12c22 <enormlz+0x86>
   12bf2:	addi	a0,s1,24
   12bf6:	addi	a1,s1,2
   12bfa:	li	a5,0
   12bfc:	mv	a4,a0
   12bfe:	lhu	a3,0(a4) # 8000 <register_fini-0x8074>
   12c02:	addi	a4,a4,-2
   12c04:	slli	a2,a3,0x8
   12c08:	or	a5,a5,a2
   12c0a:	sh	a5,2(a4)
   12c0e:	srli	a5,a3,0x8
   12c12:	bne	a4,a1,12bfe <enormlz+0x62>
   12c16:	lhu	a4,6(s1)
   12c1a:	addi	s0,s0,8
   12c1c:	andi	a5,a4,-256
   12c20:	beqz	a5,12bfa <enormlz+0x5e>
   12c22:	li	s2,160
   12c26:	j	12c34 <enormlz+0x98>
   12c28:	addi	s0,s0,1
   12c2a:	jal	12a5a <eshup1>
   12c2c:	blt	s2,s0,12c3e <enormlz+0xa2>
   12c30:	lhu	a4,6(s1)
   12c34:	slli	a4,a4,0x10
   12c36:	srai	a4,a4,0x10
   12c38:	mv	a0,s1
   12c3a:	bgez	a4,12c28 <enormlz+0x8c>
   12c3e:	lw	ra,12(sp)
   12c40:	mv	a0,s0
   12c42:	lw	s0,8(sp)
   12c44:	lw	s1,4(sp)
   12c46:	lw	s2,0(sp)
   12c48:	addi	sp,sp,16
   12c4a:	ret
   12c4c:	andi	a4,a5,-256
   12c50:	li	s0,0
   12c52:	bnez	a4,12c78 <enormlz+0xdc>
   12c54:	li	s2,-145
   12c58:	j	12c66 <enormlz+0xca>
   12c5a:	addi	s0,s0,-1
   12c5c:	jal	12a12 <eshdn1>
   12c5e:	beq	s0,s2,12c3e <enormlz+0xa2>
   12c62:	lhu	a5,4(s1)
   12c66:	mv	a0,s1
   12c68:	bnez	a5,12c5a <enormlz+0xbe>
   12c6a:	lw	ra,12(sp)
   12c6c:	mv	a0,s0
   12c6e:	lw	s0,8(sp)
   12c70:	lw	s1,4(sp)
   12c72:	lw	s2,0(sp)
   12c74:	addi	sp,sp,16
   12c76:	ret
   12c78:	addi	a3,a0,4
   12c7c:	addi	a1,a0,26
   12c80:	li	a4,0
   12c82:	j	12c88 <enormlz+0xec>
   12c84:	lhu	a5,0(a3)
   12c88:	srli	a2,a5,0x8
   12c8c:	or	a4,a4,a2
   12c8e:	slli	a5,a5,0x8
   12c90:	sh	a4,0(a3)
   12c94:	slli	a4,a5,0x10
   12c98:	addi	a3,a3,2
   12c9a:	srli	a4,a4,0x10
   12c9c:	bne	a1,a3,12c84 <enormlz+0xe8>
   12ca0:	lhu	a5,4(s1)
   12ca4:	li	s0,-8
   12ca6:	j	12c54 <enormlz+0xb8>

00012ca8 <eshift.part.0>:
   12ca8:	addi	sp,sp,-32
   12caa:	sw	s0,24(sp)
   12cac:	sw	s1,20(sp)
   12cae:	sw	ra,28(sp)
   12cb0:	sw	s2,16(sp)
   12cb2:	sw	s3,12(sp)
   12cb4:	mv	s1,a1
   12cb6:	mv	s0,a0
   12cb8:	bltz	a1,12d2c <eshift.part.0+0x84>
   12cbc:	li	a5,15
   12cbe:	mv	a2,a1
   12cc0:	addi	a0,a0,4
   12cc2:	addi	a3,s0,24
   12cc6:	li	a1,15
   12cc8:	bge	a5,s1,12ce8 <eshift.part.0+0x40>
   12ccc:	mv	a5,a0
   12cce:	lhu	a4,2(a5)
   12cd2:	addi	a5,a5,2
   12cd4:	sh	a4,-2(a5)
   12cd8:	bne	a3,a5,12cce <eshift.part.0+0x26>
   12cdc:	sh	zero,24(s0)
   12ce0:	addi	a2,a2,-16
   12ce2:	blt	a1,a2,12ccc <eshift.part.0+0x24>
   12ce6:	andi	s1,s1,15
   12ce8:	li	a5,7
   12cea:	bge	a5,s1,12d12 <eshift.part.0+0x6a>
   12cee:	addi	a4,s0,24
   12cf2:	addi	a1,s0,2
   12cf6:	li	a5,0
   12cf8:	lhu	a3,0(a4)
   12cfc:	addi	a4,a4,-2
   12cfe:	slli	a2,a3,0x8
   12d02:	or	a5,a5,a2
   12d04:	sh	a5,2(a4)
   12d08:	srli	a5,a3,0x8
   12d0c:	bne	a1,a4,12cf8 <eshift.part.0+0x50>
   12d10:	addi	s1,s1,-8
   12d12:	beqz	s1,12d1c <eshift.part.0+0x74>
   12d14:	addi	s1,s1,-1
   12d16:	mv	a0,s0
   12d18:	jal	12a5a <eshup1>
   12d1a:	bnez	s1,12d14 <eshift.part.0+0x6c>
   12d1c:	lw	ra,28(sp)
   12d1e:	lw	s0,24(sp)
   12d20:	lw	s1,20(sp)
   12d22:	lw	s2,16(sp)
   12d24:	lw	s3,12(sp)
   12d26:	li	a0,0
   12d28:	addi	sp,sp,32
   12d2a:	ret
   12d2c:	li	a5,-15
   12d2e:	neg	s2,a1
   12d32:	bge	a1,a5,12da4 <eshift.part.0+0xfc>
   12d36:	addi	a1,a0,24
   12d3a:	li	s3,0
   12d3c:	addi	a3,a0,4
   12d40:	li	a2,15
   12d42:	lhu	a4,24(s0)
   12d46:	mv	a5,a1
   12d48:	or	s3,s3,a4
   12d4c:	lhu	a4,-2(a5)
   12d50:	addi	a5,a5,-2
   12d52:	sh	a4,2(a5)
   12d56:	bne	a5,a3,12d4c <eshift.part.0+0xa4>
   12d5a:	sh	zero,4(s0)
   12d5e:	addi	s2,s2,-16
   12d60:	blt	a2,s2,12d42 <eshift.part.0+0x9a>
   12d64:	li	s2,-16
   12d66:	li	a4,-15
   12d68:	sub	s2,s2,s1
   12d6c:	li	a5,0
   12d6e:	blt	s1,a4,12dde <eshift.part.0+0x136>
   12d72:	add	s2,s2,a5
   12d74:	li	a5,7
   12d76:	blt	a5,s2,12db0 <eshift.part.0+0x108>
   12d7a:	beqz	s2,12d92 <eshift.part.0+0xea>
   12d7e:	lhu	a5,24(s0)
   12d82:	addi	s2,s2,-1
   12d84:	mv	a0,s0
   12d86:	andi	a5,a5,1
   12d88:	or	s3,s3,a5
   12d8c:	jal	12a12 <eshdn1>
   12d8e:	bnez	s2,12d7e <eshift.part.0+0xd6>
   12d92:	lw	ra,28(sp)
   12d94:	lw	s0,24(sp)
   12d96:	lw	s1,20(sp)
   12d98:	lw	s2,16(sp)
   12d9a:	snez	a0,s3
   12d9e:	lw	s3,12(sp)
   12da0:	addi	sp,sp,32
   12da2:	ret
   12da4:	li	a5,-7
   12da6:	li	s3,0
   12da8:	addi	a3,a0,4
   12dac:	bge	a1,a5,12d7e <eshift.part.0+0xd6>
   12db0:	lbu	a5,24(s0)
   12db4:	addi	a1,s0,26
   12db8:	or	s3,s3,a5
   12dbc:	li	a5,0
   12dbe:	lhu	a4,0(a3)
   12dc2:	addi	a3,a3,2
   12dc4:	srli	a2,a4,0x8
   12dc8:	or	a5,a5,a2
   12dca:	slli	a4,a4,0x8
   12dcc:	sh	a5,-2(a3)
   12dd0:	slli	a5,a4,0x10
   12dd4:	srli	a5,a5,0x10
   12dd6:	bne	a3,a1,12dbe <eshift.part.0+0x116>
   12dda:	addi	s2,s2,-8
   12ddc:	j	12d7a <eshift.part.0+0xd2>
   12dde:	andi	a5,s2,-16
   12de2:	neg	a5,a5
   12de6:	add	s2,s2,a5
   12de8:	li	a5,7
   12dea:	bge	a5,s2,12d7a <eshift.part.0+0xd2>
   12dee:	j	12db0 <eshift.part.0+0x108>

00012df0 <emovi>:
   12df0:	lhu	a5,18(a0)
   12df4:	lui	a2,0x8
   12df6:	addi	a2,a2,-1
   12df8:	srli	a5,a5,0xf
   12dfa:	neg	a5,a5
   12dfe:	sh	a5,0(a1)
   12e02:	lhu	a3,18(a0)
   12e06:	addi	a5,a0,16
   12e0a:	addi	a4,a1,4
   12e0e:	and	a3,a3,a2
   12e10:	sh	a3,2(a1)
   12e14:	beq	a3,a2,12e38 <emovi+0x48>
   12e18:	addi	a4,a1,6
   12e1c:	sh	zero,4(a1)
   12e20:	addi	a0,a0,-2
   12e22:	lhu	a3,0(a5)
   12e26:	addi	a5,a5,-2
   12e28:	addi	a4,a4,2
   12e2a:	sh	a3,-2(a4)
   12e2e:	bne	a0,a5,12e22 <emovi+0x32>
   12e32:	sh	zero,24(a1)
   12e36:	ret
   12e38:	lhu	a2,18(a0)
   12e3c:	and	a2,a2,a3
   12e3e:	bne	a2,a3,12e54 <emovi+0x64>
   12e42:	addi	a6,a0,18
   12e46:	mv	a3,a0
   12e48:	lhu	a2,0(a3)
   12e4c:	addi	a3,a3,2
   12e4e:	bnez	a2,12e62 <emovi+0x72>
   12e50:	bne	a3,a6,12e48 <emovi+0x58>
   12e54:	addi	a1,a1,26
   12e56:	addi	a4,a4,2
   12e58:	sh	zero,-2(a4)
   12e5c:	bne	a1,a4,12e56 <emovi+0x66>
   12e60:	ret
   12e62:	addi	a4,a1,6
   12e66:	sh	zero,4(a1)
   12e6a:	addi	a0,a0,-4
   12e6c:	lhu	a3,0(a5)
   12e70:	addi	a5,a5,-2
   12e72:	addi	a4,a4,2
   12e74:	sh	a3,-2(a4)
   12e78:	bne	a5,a0,12e6c <emovi+0x7c>
   12e7c:	ret

00012e7e <ecmp>:
   12e7e:	lhu	a5,18(a0)
   12e82:	addi	sp,sp,-80
   12e84:	sw	s0,72(sp)
   12e86:	not	a5,a5
   12e8a:	sw	ra,76(sp)
   12e8c:	slli	a4,a5,0x11
   12e90:	mv	s0,a1
   12e92:	bnez	a4,12ea6 <ecmp+0x28>
   12e94:	addi	a3,a0,18
   12e98:	mv	a5,a0
   12e9a:	lhu	a4,0(a5)
   12e9e:	addi	a5,a5,2
   12ea0:	bnez	a4,12f0c <ecmp+0x8e>
   12ea2:	bne	a5,a3,12e9a <ecmp+0x1c>
   12ea6:	lhu	a5,18(s0)
   12eaa:	not	a5,a5
   12eae:	slli	a4,a5,0x11
   12eb2:	beqz	a4,12ef2 <ecmp+0x74>
   12eb4:	addi	a1,sp,8
   12eb6:	jal	12df0 <emovi>
   12eb8:	addi	a1,sp,36
   12eba:	mv	a0,s0
   12ebc:	jal	12df0 <emovi>
   12ebe:	lhu	a1,8(sp)
   12ec2:	lhu	a0,36(sp)
   12ec6:	beq	a0,a1,12f16 <ecmp+0x98>
   12eca:	addi	a5,sp,10
   12ece:	addi	a4,sp,38
   12ed2:	addi	a2,sp,32
   12ed4:	lhu	a3,0(a5)
   12ed8:	addi	a5,a5,2
   12eda:	bnez	a3,12f56 <ecmp+0xd8>
   12edc:	lhu	a3,0(a4)
   12ee0:	addi	a4,a4,2
   12ee2:	bnez	a3,12f56 <ecmp+0xd8>
   12ee4:	bne	a2,a5,12ed4 <ecmp+0x56>
   12ee8:	li	a0,0
   12eea:	lw	ra,76(sp)
   12eec:	lw	s0,72(sp)
   12eee:	addi	sp,sp,80
   12ef0:	ret
   12ef2:	mv	a5,s0
   12ef4:	lhu	a4,0(a5)
   12ef8:	addi	a3,s0,18
   12efc:	addi	a5,a5,2
   12efe:	bnez	a4,12f0c <ecmp+0x8e>
   12f00:	beq	a5,a3,12eb4 <ecmp+0x36>
   12f04:	lhu	a4,0(a5)
   12f08:	addi	a5,a5,2
   12f0a:	beqz	a4,12f00 <ecmp+0x82>
   12f0c:	lw	ra,76(sp)
   12f0e:	lw	s0,72(sp)
   12f10:	li	a0,-2
   12f12:	addi	sp,sp,80
   12f14:	ret
   12f16:	lhu	a2,10(sp)
   12f1a:	lhu	a3,38(sp)
   12f1e:	seqz	a0,a0
   12f22:	addi	a4,sp,10
   12f26:	addi	a5,sp,38
   12f2a:	slli	a0,a0,0x1
   12f2c:	addi	a0,a0,-1
   12f2e:	addi	a1,sp,60
   12f30:	addi	a5,a5,2
   12f32:	addi	a4,a4,2
   12f34:	bne	a2,a3,12f4c <ecmp+0xce>
   12f38:	beq	a5,a1,12ee8 <ecmp+0x6a>
   12f3c:	lhu	a2,0(a4)
   12f40:	lhu	a3,0(a5)
   12f44:	addi	a4,a4,2
   12f46:	addi	a5,a5,2
   12f48:	beq	a2,a3,12f38 <ecmp+0xba>
   12f4c:	bltu	a3,a2,12eea <ecmp+0x6c>
   12f50:	neg	a0,a0
   12f54:	j	12eea <ecmp+0x6c>
   12f56:	li	a0,1
   12f58:	beqz	a1,12eea <ecmp+0x6c>
   12f5a:	li	a0,-1
   12f5c:	j	12eea <ecmp+0x6c>

00012f5e <emdnorm>:
   12f5e:	addi	sp,sp,-48
   12f60:	sw	s0,40(sp)
   12f62:	sw	s2,32(sp)
   12f64:	sw	s3,28(sp)
   12f66:	sw	s4,24(sp)
   12f68:	sw	s5,20(sp)
   12f6a:	sw	s7,12(sp)
   12f6c:	mv	s2,a5
   12f6e:	mv	s7,a3
   12f70:	sw	ra,44(sp)
   12f72:	sw	s1,36(sp)
   12f74:	sw	s6,16(sp)
   12f76:	mv	s0,a0
   12f78:	mv	s3,a1
   12f7a:	mv	s4,a2
   12f7c:	mv	s5,a4
   12f7e:	jal	12b9c <enormlz>
   12f80:	li	a5,144
   12f84:	sub	s7,s7,a0
   12f88:	bge	a5,a0,13092 <emdnorm+0x134>
   12f8c:	lui	a5,0x8
   12f8e:	addi	a5,a5,-2
   12f90:	bge	a5,s7,1317c <emdnorm+0x21e>
   12f94:	beqz	s5,1315c <emdnorm+0x1fe>
   12f98:	lw	s5,4(s2)
   12f9c:	lw	a3,0(s2)
   12fa0:	addi	a4,s2,26
   12fa4:	addi	a5,s2,52
   12fa8:	beq	s5,a3,131be <emdnorm+0x260>
   12fac:	addi	a4,a4,2
   12fae:	sh	zero,-2(a4)
   12fb2:	bne	a5,a4,12fac <emdnorm+0x4e>
   12fb6:	li	a5,56
   12fba:	beq	s5,a5,13226 <emdnorm+0x2c8>
   12fbe:	bge	a5,s5,130b0 <emdnorm+0x152>
   12fc2:	li	a5,64
   12fc6:	beq	s5,a5,131e4 <emdnorm+0x286>
   12fca:	li	a5,113
   12fce:	bne	s5,a5,1323a <emdnorm+0x2dc>
   12fd2:	lui	a4,0x8
   12fd4:	addi	a4,a4,-1
   12fd6:	lui	a1,0x4
   12fd8:	li	s6,20
   12fda:	li	s1,10
   12fdc:	lui	a5,0x8
   12fde:	li	a2,10
   12fe0:	addi	a3,a2,8 # 8008 <register_fini-0x806c>
   12fe4:	slli	a3,a3,0x1
   12fe6:	sh	a4,20(s2)
   12fea:	sw	s1,8(s2)
   12fee:	sh	a1,22(s2)
   12ff2:	sh	a5,24(s2)
   12ff6:	sw	a2,12(s2)
   12ffa:	add	a4,s2,a3
   12ffe:	sh	a5,10(a4) # 800a <register_fini-0x806a>
   13002:	sw	s5,0(s2)
   13006:	add	s6,s6,s0
   13008:	blez	s7,131cc <emdnorm+0x26e>
   1300c:	lhu	a5,0(s6)
   13010:	lhu	a4,20(s2)
   13014:	li	a3,143
   13018:	and	a2,a5,a4
   1301c:	blt	a3,s5,1304c <emdnorm+0xee>
   13020:	li	a3,11
   13022:	blt	a3,s1,1304c <emdnorm+0xee>
   13026:	slli	a4,s1,0x1
   1302a:	add	a4,a4,s0
   1302c:	addi	a3,s0,24
   13030:	lhu	a5,2(a4)
   13034:	beqz	a5,1303a <emdnorm+0xdc>
   13036:	ori	a2,a2,1
   1303a:	sh	zero,2(a4)
   1303e:	addi	a4,a4,2
   13040:	bne	a3,a4,13030 <emdnorm+0xd2>
   13044:	lhu	a5,0(s6)
   13048:	lhu	a4,20(s2)
   1304c:	not	a4,a4
   13050:	and	a5,a5,a4
   13052:	sh	a5,0(s6)
   13056:	lhu	a5,22(s2)
   1305a:	and	a4,a5,a2
   1305e:	bnez	a4,130f2 <emdnorm+0x194>
   13060:	blez	s7,1313c <emdnorm+0x1de>
   13064:	lhu	a5,4(s0)
   13068:	bnez	a5,13208 <emdnorm+0x2aa>
   1306c:	lui	a5,0x8
   1306e:	sh	zero,24(s0)
   13072:	addi	a5,a5,-2
   13074:	blt	a5,s7,13160 <emdnorm+0x202>
   13078:	sh	s7,2(s0)
   1307c:	lw	ra,44(sp)
   1307e:	lw	s0,40(sp)
   13080:	lw	s1,36(sp)
   13082:	lw	s2,32(sp)
   13084:	lw	s3,28(sp)
   13086:	lw	s4,24(sp)
   13088:	lw	s5,20(sp)
   1308a:	lw	s6,16(sp)
   1308c:	lw	s7,12(sp)
   1308e:	addi	sp,sp,48
   13090:	ret
   13092:	bgez	s7,131a6 <emdnorm+0x248>
   13096:	li	a5,-144
   1309a:	bge	s7,a5,1318e <emdnorm+0x230>
   1309e:	addi	a5,s0,2
   130a2:	addi	s0,s0,26
   130a4:	addi	a5,a5,2
   130a6:	sh	zero,-2(a5) # 7ffe <register_fini-0x8076>
   130aa:	bne	a5,s0,130a4 <emdnorm+0x146>
   130ae:	j	1307c <emdnorm+0x11e>
   130b0:	li	a5,24
   130b2:	beq	s5,a5,131f4 <emdnorm+0x296>
   130b6:	li	a5,53
   130ba:	bne	s5,a5,1323a <emdnorm+0x2dc>
   130be:	lui	a5,0x1
   130c0:	li	a4,2047
   130c4:	li	a1,1024
   130c8:	li	s6,12
   130ca:	li	s1,6
   130cc:	addi	a5,a5,-2048 # 800 <register_fini-0xf874>
   130d0:	li	a2,6
   130d2:	j	12fe0 <emdnorm+0x82>
   130d4:	lhu	a4,20(s2)
   130d8:	lhu	a2,0(s6)
   130dc:	not	a5,a4
   130e0:	and	a5,a5,a2
   130e2:	sh	a5,0(s6)
   130e6:	lhu	a5,22(s2)
   130ea:	and	a2,a2,a4
   130ec:	and	a4,a5,a2
   130f0:	beqz	a4,13148 <emdnorm+0x1ea>
   130f2:	bne	a5,a2,1310e <emdnorm+0x1b0>
   130f6:	bnez	s3,13220 <emdnorm+0x2c2>
   130fa:	lw	a5,12(s2)
   130fe:	lhu	a4,24(s2)
   13102:	slli	a5,a5,0x1
   13104:	add	a5,a5,s0
   13106:	lhu	a5,0(a5)
   1310a:	and	a5,a5,a4
   1310c:	beqz	a5,13060 <emdnorm+0x102>
   1310e:	addi	a0,s2,50
   13112:	addi	a2,s0,24
   13116:	addi	s2,s2,28
   13118:	li	a5,0
   1311a:	lhu	a4,0(a0)
   1311e:	lhu	a6,0(a2)
   13122:	addi	a2,a2,-2
   13124:	addi	a0,a0,-2
   13126:	add	a4,a4,a6
   13128:	add	a4,a4,a5
   1312a:	srli	a5,a4,0x10
   1312e:	sh	a4,2(a2)
   13132:	andi	a5,a5,1
   13134:	bne	s2,a0,1311a <emdnorm+0x1bc>
   13138:	bgtz	s7,13064 <emdnorm+0x106>
   1313c:	li	a5,144
   13140:	beq	s5,a5,13148 <emdnorm+0x1ea>
   13144:	mv	a0,s0
   13146:	jal	12a5a <eshup1>
   13148:	lhu	a5,4(s0)
   1314c:	bnez	a5,13208 <emdnorm+0x2aa>
   1314e:	sh	zero,24(s0)
   13152:	bgez	s7,13078 <emdnorm+0x11a>
   13156:	sh	zero,2(s0)
   1315a:	j	1307c <emdnorm+0x11e>
   1315c:	sh	zero,24(s0)
   13160:	lui	a5,0xffff8
   13162:	not	a5,a5
   13166:	sh	a5,2(s0)
   1316a:	addi	a5,s0,4
   1316e:	addi	s0,s0,24
   13170:	sh	zero,0(a5) # ffff8000 <__BSS_END__+0xfffd85c8>
   13174:	addi	a5,a5,2
   13176:	bne	a5,s0,13170 <emdnorm+0x212>
   1317a:	j	1307c <emdnorm+0x11e>
   1317c:	addi	a5,s0,2
   13180:	addi	s0,s0,26
   13182:	addi	a5,a5,2
   13184:	sh	zero,-2(a5)
   13188:	bne	s0,a5,13182 <emdnorm+0x224>
   1318c:	j	1307c <emdnorm+0x11e>
   1318e:	mv	a1,s7
   13190:	mv	a0,s0
   13192:	jal	12ca8 <eshift.part.0>
   13194:	beqz	a0,13198 <emdnorm+0x23a>
   13196:	li	s3,1
   13198:	bnez	s5,12f98 <emdnorm+0x3a>
   1319c:	sh	zero,24(s0)
   131a0:	sh	zero,2(s0)
   131a4:	j	1307c <emdnorm+0x11e>
   131a6:	beqz	s5,1306c <emdnorm+0x10e>
   131aa:	lw	s5,4(s2)
   131ae:	lw	a3,0(s2)
   131b2:	addi	a4,s2,26
   131b6:	addi	a5,s2,52
   131ba:	bne	s5,a3,12fac <emdnorm+0x4e>
   131be:	lw	s1,8(s2)
   131c2:	slli	s6,s1,0x1
   131c6:	add	s6,s6,s0
   131c8:	bgtz	s7,1300c <emdnorm+0xae>
   131cc:	li	a5,144
   131d0:	beq	s5,a5,130d4 <emdnorm+0x176>
   131d4:	lhu	a5,24(s0)
   131d8:	mv	a0,s0
   131da:	andi	a5,a5,1
   131dc:	or	s3,s3,a5
   131e0:	jal	12a12 <eshdn1>
   131e2:	j	1300c <emdnorm+0xae>
   131e4:	lui	a4,0x10
   131e6:	addi	a4,a4,-1
   131e8:	lui	a1,0x8
   131ea:	li	s6,14
   131ec:	li	s1,7
   131ee:	li	a5,1
   131f0:	li	a2,6
   131f2:	j	12fe0 <emdnorm+0x82>
   131f4:	li	a4,255
   131f8:	li	a1,128
   131fc:	li	s6,8
   131fe:	li	s1,4
   13200:	li	a5,256
   13204:	li	a2,4
   13206:	j	12fe0 <emdnorm+0x82>
   13208:	mv	a0,s0
   1320a:	jal	12a12 <eshdn1>
   1320c:	lui	a5,0x8
   1320e:	addi	s7,s7,1
   13210:	sh	zero,24(s0)
   13214:	addi	a5,a5,-2
   13216:	blt	a5,s7,13160 <emdnorm+0x202>
   1321a:	bltz	s7,13156 <emdnorm+0x1f8>
   1321e:	j	13078 <emdnorm+0x11a>
   13220:	beqz	s4,1310e <emdnorm+0x1b0>
   13224:	j	13060 <emdnorm+0x102>
   13226:	li	a4,255
   1322a:	li	a1,128
   1322e:	li	s6,12
   13230:	li	s1,6
   13232:	li	a5,256
   13236:	li	a2,6
   13238:	j	12fe0 <emdnorm+0x82>
   1323a:	lui	a4,0x10
   1323c:	addi	a4,a4,-1
   1323e:	lui	a1,0x8
   13240:	li	s6,24
   13242:	li	s1,12
   13244:	li	a5,1
   13246:	li	a2,11
   13248:	j	12fe0 <emdnorm+0x82>

0001324a <eiremain>:
   1324a:	addi	sp,sp,-48
   1324c:	sw	s2,32(sp)
   1324e:	sw	s3,28(sp)
   13250:	mv	s2,a1
   13252:	lhu	s3,2(a0)
   13256:	sw	ra,44(sp)
   13258:	sw	s0,40(sp)
   1325a:	sw	s1,36(sp)
   1325c:	sw	s4,24(sp)
   1325e:	mv	s1,a2
   13260:	sw	s7,12(sp)
   13262:	sw	s5,20(sp)
   13264:	sw	s6,16(sp)
   13266:	sw	s8,8(sp)
   13268:	sw	s9,4(sp)
   1326a:	sw	s10,0(sp)
   1326c:	mv	s7,a0
   1326e:	jal	12b9c <enormlz>
   13270:	lhu	s0,2(s2)
   13274:	mv	a5,a0
   13276:	mv	a0,s2
   13278:	sub	s3,s3,a5
   1327c:	addi	s4,s1,52
   13280:	jal	12b9c <enormlz>
   13282:	sub	s0,s0,a0
   13284:	addi	a4,s1,78
   13288:	mv	a5,s4
   1328a:	addi	a5,a5,2
   1328c:	sh	zero,-2(a5) # 7ffe <register_fini-0x8076>
   13290:	bne	a5,a4,1328a <eiremain+0x40>
   13294:	blt	s0,s3,13308 <eiremain+0xbe>
   13298:	addi	s6,s7,4
   1329c:	addi	s5,s2,4
   132a0:	addi	s8,s7,26
   132a4:	addi	s10,s2,2
   132a8:	mv	a4,s5
   132aa:	mv	a5,s6
   132ac:	lhu	a2,0(a5)
   132b0:	lhu	a3,0(a4) # 10000 <register_fini-0x74>
   132b4:	addi	a5,a5,2
   132b6:	addi	a4,a4,2
   132b8:	bne	a2,a3,13330 <eiremain+0xe6>
   132bc:	bne	a5,s8,132ac <eiremain+0x62>
   132c0:	addi	a2,s7,24
   132c4:	addi	a4,s2,24
   132c8:	li	a3,0
   132ca:	lhu	a5,0(a4)
   132ce:	lhu	a1,0(a2)
   132d2:	addi	a4,a4,-2
   132d4:	sub	a5,a5,a3
   132d6:	sub	a5,a5,a1
   132d8:	srli	a3,a5,0x10
   132dc:	sh	a5,2(a4)
   132e0:	andi	a3,a3,1
   132e2:	addi	a2,a2,-2
   132e4:	bne	s10,a4,132ca <eiremain+0x80>
   132e8:	li	s9,1
   132ea:	mv	a0,s4
   132ec:	jal	ra,12a5a <eshup1>
   132f0:	lhu	a5,76(s1)
   132f4:	addi	s0,s0,-1
   132f6:	mv	a0,s2
   132f8:	or	a5,s9,a5
   132fc:	sh	a5,76(s1)
   13300:	jal	ra,12a5a <eshup1>
   13304:	bge	s0,s3,132a8 <eiremain+0x5e>
   13308:	mv	a3,s0
   1330a:	lw	s0,40(sp)
   1330c:	lw	ra,44(sp)
   1330e:	lw	s3,28(sp)
   13310:	lw	s4,24(sp)
   13312:	lw	s5,20(sp)
   13314:	lw	s6,16(sp)
   13316:	lw	s7,12(sp)
   13318:	lw	s8,8(sp)
   1331a:	lw	s9,4(sp)
   1331c:	lw	s10,0(sp)
   1331e:	mv	a5,s1
   13320:	mv	a0,s2
   13322:	lw	s1,36(sp)
   13324:	lw	s2,32(sp)
   13326:	li	a4,0
   13328:	li	a2,0
   1332a:	li	a1,0
   1332c:	addi	sp,sp,48
   1332e:	j	12f5e <emdnorm>
   13330:	li	s9,0
   13332:	bltu	a3,a2,132ea <eiremain+0xa0>
   13336:	j	132c0 <eiremain+0x76>

00013338 <e113toe.isra.0>:
   13338:	addi	sp,sp,-48
   1333a:	sw	s0,40(sp)
   1333c:	sw	ra,44(sp)
   1333e:	mv	s0,a1
   13340:	addi	a5,sp,4
   13342:	addi	a4,sp,30
   13346:	addi	a5,a5,2
   13348:	sh	zero,-2(a5)
   1334c:	bne	a5,a4,13346 <e113toe.isra.0+0xe>
   13350:	lhu	a2,14(a0)
   13354:	lui	a5,0x8
   13356:	addi	a5,a5,-1
   13358:	srli	a4,a2,0xf
   1335c:	neg	a4,a4
   13360:	sh	a4,4(sp)
   13364:	and	a2,a2,a5
   13366:	beq	a2,a5,133aa <e113toe.isra.0+0x72>
   1336a:	addi	a5,a0,14
   1336e:	sh	a2,6(sp)
   13372:	addi	a4,sp,10
   13376:	lhu	a3,-2(a5) # 7ffe <register_fini-0x8076>
   1337a:	addi	a5,a5,-2
   1337c:	addi	a4,a4,2
   1337e:	sh	a3,-2(a4)
   13382:	bne	a0,a5,13376 <e113toe.isra.0+0x3e>
   13386:	bnez	a2,1339c <e113toe.isra.0+0x64>
   13388:	sh	zero,8(sp)
   1338c:	mv	a1,s0
   1338e:	addi	a0,sp,4
   13390:	jal	ra,12b10 <emovo.constprop.0>
   13394:	lw	ra,44(sp)
   13396:	lw	s0,40(sp)
   13398:	addi	sp,sp,48
   1339a:	ret
   1339c:	li	a5,1
   1339e:	li	a1,-1
   133a0:	addi	a0,sp,4
   133a2:	sh	a5,8(sp)
   133a6:	jal	12ca8 <eshift.part.0>
   133a8:	j	1338c <e113toe.isra.0+0x54>
   133aa:	mv	a5,a0
   133ac:	addi	a3,a0,14
   133b0:	lhu	a4,0(a5)
   133b4:	addi	a5,a5,2
   133b6:	bnez	a4,1340e <e113toe.isra.0+0xd6>
   133b8:	bne	a3,a5,133b0 <e113toe.isra.0+0x78>
   133bc:	addi	a4,s0,20
   133c0:	mv	a5,s0
   133c2:	addi	a5,a5,2
   133c4:	sh	zero,-2(a5)
   133c8:	bne	a5,a4,133c2 <e113toe.isra.0+0x8a>
   133cc:	addi	a4,s0,18
   133d0:	mv	a5,s0
   133d2:	addi	a5,a5,2
   133d4:	sh	zero,-2(a5)
   133d8:	bne	a4,a5,133d2 <e113toe.isra.0+0x9a>
   133dc:	lhu	a5,18(s0)
   133e0:	lui	a3,0x8
   133e2:	addi	a3,a3,-1
   133e4:	or	a5,a5,a3
   133e6:	slli	a5,a5,0x10
   133e8:	srli	a5,a5,0x10
   133ea:	sh	a5,18(s0)
   133ee:	lh	a3,14(a0)
   133f2:	bgez	a3,13394 <e113toe.isra.0+0x5c>
   133f6:	mv	a3,s0
   133f8:	lhu	a2,0(a3) # 8000 <register_fini-0x8074>
   133fc:	addi	a3,a3,2
   133fe:	bnez	a2,13394 <e113toe.isra.0+0x5c>
   13400:	bne	a4,a3,133f8 <e113toe.isra.0+0xc0>
   13404:	lui	a4,0xffff8
   13406:	xor	a5,a5,a4
   13408:	sh	a5,18(s0)
   1340c:	j	13394 <e113toe.isra.0+0x5c>
   1340e:	addi	a4,s0,16
   13412:	mv	a5,s0
   13414:	addi	a5,a5,2
   13416:	sh	zero,-2(a5)
   1341a:	bne	a5,a4,13414 <e113toe.isra.0+0xdc>
   1341e:	lui	a5,0xffffc
   13420:	sh	a5,16(s0)
   13424:	lui	a5,0xffff8
   13426:	not	a5,a5
   1342a:	sh	a5,18(s0)
   1342e:	j	13394 <e113toe.isra.0+0x5c>

00013430 <ediv>:
   13430:	lhu	a5,18(a0)
   13434:	addi	sp,sp,-176
   13436:	sw	s0,168(sp)
   13438:	not	a5,a5
   1343c:	sw	s1,164(sp)
   1343e:	sw	s2,160(sp)
   13440:	sw	s3,156(sp)
   13442:	sw	ra,172(sp)
   13444:	sw	s4,152(sp)
   13446:	sw	s5,148(sp)
   13448:	sw	s6,144(sp)
   1344a:	sw	s7,140(sp)
   1344c:	sw	s8,136(sp)
   1344e:	sw	s9,132(sp)
   13450:	sw	s10,128(sp)
   13452:	sw	s11,124(sp)
   13454:	slli	a4,a5,0x11
   13458:	mv	s1,a0
   1345a:	mv	s3,a1
   1345c:	mv	s0,a2
   1345e:	mv	s2,a3
   13460:	bnez	a4,13476 <ediv+0x46>
   13462:	addi	a3,a0,18
   13466:	mv	a5,a0
   13468:	lhu	a4,0(a5) # ffff8000 <__BSS_END__+0xfffd85c8>
   1346c:	addi	a5,a5,2
   1346e:	bnez	a4,13698 <ediv+0x268>
   13472:	bne	a5,a3,13468 <ediv+0x38>
   13476:	lhu	a5,18(s3)
   1347a:	not	a5,a5
   1347e:	slli	a4,a5,0x11
   13482:	bnez	a4,13498 <ediv+0x68>
   13484:	addi	a3,s3,18
   13488:	mv	a5,s3
   1348a:	lhu	a4,0(a5)
   1348e:	addi	a5,a5,2
   13490:	bnez	a4,136ae <ediv+0x27e>
   13494:	bne	a5,a3,1348a <ediv+0x5a>
   13498:	lui	s4,0x1e
   1349a:	addi	a1,s4,-1168 # 1db70 <ezero>
   1349e:	mv	a0,s1
   134a0:	jal	12e7e <ecmp>
   134a2:	beqz	a0,136c4 <ediv+0x294>
   134a6:	lhu	a2,18(s1)
   134aa:	lhu	a4,18(s3)
   134ae:	lui	a5,0x8
   134b0:	addi	a5,a5,-1
   134b2:	and	a0,a2,a5
   134b6:	and	a1,a4,a5
   134ba:	bne	a0,a5,1352e <ediv+0xfe>
   134be:	addi	a6,s1,18
   134c2:	mv	a5,s1
   134c4:	lhu	a3,0(a5) # 8000 <register_fini-0x8074>
   134c8:	addi	a5,a5,2
   134ca:	bnez	a3,1352a <ediv+0xfa>
   134cc:	bne	a5,a6,134c4 <ediv+0x94>
   134d0:	lui	a5,0x8
   134d2:	addi	a5,a5,-1
   134d4:	bne	a1,a5,136d8 <ediv+0x2a8>
   134d8:	addi	a3,s3,18
   134dc:	mv	a5,s3
   134de:	lhu	a1,0(a5) # 8000 <register_fini-0x8074>
   134e2:	addi	a5,a5,2
   134e4:	bnez	a1,1383a <ediv+0x40a>
   134e8:	bne	a5,a3,134de <ediv+0xae>
   134ec:	addi	a4,s0,16
   134f0:	mv	a5,s0
   134f2:	addi	a5,a5,2
   134f4:	sh	zero,-2(a5)
   134f8:	bne	a5,a4,134f2 <ediv+0xc2>
   134fc:	lui	a5,0xffffc
   134fe:	sh	a5,16(s0)
   13502:	lui	a5,0xffff8
   13504:	not	a5,a5
   13508:	sh	a5,18(s0)
   1350c:	lw	ra,172(sp)
   1350e:	lw	s0,168(sp)
   13510:	lw	s1,164(sp)
   13512:	lw	s2,160(sp)
   13514:	lw	s3,156(sp)
   13516:	lw	s4,152(sp)
   13518:	lw	s5,148(sp)
   1351a:	lw	s6,144(sp)
   1351c:	lw	s7,140(sp)
   1351e:	lw	s8,136(sp)
   13520:	lw	s9,132(sp)
   13522:	lw	s10,128(sp)
   13524:	lw	s11,124(sp)
   13526:	addi	sp,sp,176
   13528:	ret
   1352a:	lui	a5,0x8
   1352c:	addi	a5,a5,-1
   1352e:	beq	a1,a5,136e8 <ediv+0x2b8>
   13532:	mv	a0,s1
   13534:	addi	a1,sp,28
   13536:	jal	12df0 <emovi>
   13538:	addi	a1,sp,56
   1353a:	mv	a0,s3
   1353c:	jal	12df0 <emovi>
   1353e:	lhu	s5,58(sp)
   13542:	lhu	s1,30(sp)
   13546:	beqz	s5,13752 <ediv+0x322>
   1354a:	sw	s5,12(sp)
   1354c:	mv	a4,s1
   1354e:	sw	s1,8(sp)
   13550:	addi	a5,sp,32
   13552:	addi	a3,sp,52
   13554:	bnez	a4,1356e <ediv+0x13e>
   13556:	beq	a5,a3,1380c <ediv+0x3dc>
   1355a:	lhu	a4,0(a5) # 8000 <register_fini-0x8074>
   1355e:	addi	a5,a5,2
   13560:	beqz	a4,13556 <ediv+0x126>
   13562:	addi	a0,sp,28
   13564:	jal	ra,12b9c <enormlz>
   13568:	sub	a5,s1,a0
   1356c:	sw	a5,8(sp)
   1356e:	lw	a4,56(sp)
   13570:	addi	s5,s2,56
   13574:	mv	a5,s5
   13576:	sw	a4,52(s2)
   1357a:	addi	s1,s2,78
   1357e:	addi	a5,a5,2
   13580:	sh	zero,-2(a5)
   13584:	bne	s1,a5,1357e <ediv+0x14e>
   13588:	addi	a0,sp,56
   1358a:	jal	ra,12a12 <eshdn1>
   1358e:	lhu	s6,34(sp)
   13592:	lui	s3,0x10
   13594:	addi	s8,sp,80
   13598:	slli	s4,s6,0x10
   1359c:	sub	s4,s4,s6
   135a0:	addi	s9,sp,58
   135a4:	addi	s3,s3,-1
   135a6:	addi	s10,sp,110
   135aa:	addi	s11,sp,86
   135ae:	lhu	a5,60(sp)
   135b2:	lhu	a4,62(sp)
   135b6:	mv	s7,s3
   135b8:	slli	a5,a5,0x10
   135ba:	add	a5,a5,a4
   135bc:	bltu	s4,a5,135cc <ediv+0x19c>
   135c0:	divu	a5,a5,s6
   135c4:	slli	s7,a5,0x10
   135c8:	srli	s7,s7,0x10
   135cc:	addi	a2,sp,84
   135ce:	addi	a1,sp,28
   135d0:	mv	a0,s7
   135d2:	jal	ra,12aa8 <m16m>
   135d6:	addi	a4,sp,60
   135d8:	addi	a5,sp,88
   135da:	lhu	a2,0(a5)
   135de:	lhu	a3,0(a4) # ffff8000 <__BSS_END__+0xfffd85c8>
   135e2:	addi	a5,a5,2
   135e4:	addi	a4,a4,2
   135e6:	bne	a2,a3,13776 <ediv+0x346>
   135ea:	bne	a5,s10,135da <ediv+0x1aa>
   135ee:	li	a5,0
   135f0:	addi	a3,sp,108
   135f2:	mv	a2,s8
   135f4:	lhu	a4,0(a2)
   135f8:	lhu	a1,0(a3)
   135fc:	addi	a2,a2,-2
   135fe:	sub	a4,a4,a5
   13600:	sub	a4,a4,a1
   13602:	srli	a5,a4,0x10
   13606:	sh	a4,2(a2)
   1360a:	andi	a5,a5,1
   1360c:	addi	a3,a3,-2
   1360e:	bne	a2,s9,135f4 <ediv+0x1c4>
   13612:	sh	s7,0(s5)
   13616:	addi	a5,sp,60
   13618:	lhu	a4,2(a5)
   1361c:	addi	a5,a5,2
   1361e:	sh	a4,-2(a5)
   13622:	bne	a5,s8,13618 <ediv+0x1e8>
   13626:	sh	zero,80(sp)
   1362a:	addi	s5,s5,2
   1362c:	bne	s1,s5,135ae <ediv+0x17e>
   13630:	li	a4,0
   13632:	addi	a5,sp,60
   13634:	addi	a2,sp,82
   13638:	lhu	a3,0(a5)
   1363c:	addi	a5,a5,2
   1363e:	or	a4,a4,a3
   13640:	bne	a5,a2,13638 <ediv+0x208>
   13644:	snez	a1,a4
   13648:	addi	a5,sp,56
   1364a:	addi	a4,s2,52
   1364e:	lhu	a3,0(a4)
   13652:	addi	a5,a5,2
   13654:	addi	a4,a4,2
   13656:	sh	a3,-2(a5)
   1365a:	bne	a2,a5,1364e <ediv+0x21e>
   1365e:	lw	a5,12(sp)
   13660:	lw	a4,8(sp)
   13662:	lui	a3,0x4
   13664:	addi	a3,a3,-1
   13666:	sub	s5,a5,a4
   1366a:	addi	a0,sp,56
   1366c:	mv	a5,s2
   1366e:	li	a4,64
   13672:	add	a3,a3,s5
   13674:	li	a2,0
   13676:	jal	12f5e <emdnorm>
   13678:	lhu	a4,56(sp)
   1367c:	lhu	a5,28(sp)
   13680:	mv	a1,s0
   13682:	addi	a0,sp,56
   13684:	sub	a5,a5,a4
   13686:	snez	a5,a5
   1368a:	neg	a5,a5
   1368e:	sh	a5,56(sp)
   13692:	jal	ra,12b10 <emovo.constprop.0>
   13696:	j	1350c <ediv+0xdc>
   13698:	addi	a4,s1,20
   1369c:	lhu	a5,0(s1)
   136a0:	addi	s1,s1,2
   136a2:	addi	s0,s0,2
   136a4:	sh	a5,-2(s0)
   136a8:	bne	s1,a4,1369c <ediv+0x26c>
   136ac:	j	1350c <ediv+0xdc>
   136ae:	addi	a4,s0,20
   136b2:	lhu	a5,0(s3) # 10000 <register_fini-0x74>
   136b6:	addi	s0,s0,2
   136b8:	addi	s3,s3,2
   136ba:	sh	a5,-2(s0)
   136be:	bne	s0,a4,136b2 <ediv+0x282>
   136c2:	j	1350c <ediv+0xdc>
   136c4:	addi	a1,s4,-1168
   136c8:	mv	a0,s3
   136ca:	jal	ra,12e7e <ecmp>
   136ce:	bnez	a0,134a6 <ediv+0x76>
   136d2:	j	134ec <ediv+0xbc>
   136d4:	beqz	a6,13532 <ediv+0x102>
   136d8:	addi	a5,s0,20
   136dc:	addi	s0,s0,2
   136de:	sh	zero,-2(s0)
   136e2:	bne	s0,a5,136dc <ediv+0x2ac>
   136e6:	j	1350c <ediv+0xdc>
   136e8:	li	a6,0
   136ea:	addi	a3,s3,18
   136ee:	mv	a5,s3
   136f0:	lhu	a1,0(a5)
   136f4:	addi	a5,a5,2
   136f6:	bnez	a1,136d4 <ediv+0x2a4>
   136f8:	bne	a5,a3,136f0 <ediv+0x2c0>
   136fc:	lui	a5,0x8
   136fe:	addi	a5,a5,-1
   13700:	beq	a0,a5,13740 <ediv+0x310>
   13704:	srli	a2,a2,0xf
   13706:	lhu	a5,0(s3)
   1370a:	addi	s3,s3,2
   1370c:	bnez	a5,13832 <ediv+0x402>
   13710:	bne	s3,a3,13706 <ediv+0x2d6>
   13714:	srli	a5,a4,0xf
   13718:	xor	a5,a5,a2
   1371a:	slli	a5,a5,0xf
   1371c:	sh	a5,18(s0)
   13720:	addi	a4,s0,18
   13724:	mv	a5,s0
   13726:	addi	a5,a5,2
   13728:	sh	zero,-2(a5) # 7ffe <register_fini-0x8076>
   1372c:	bne	a5,a4,13726 <ediv+0x2f6>
   13730:	lhu	a5,18(s0)
   13734:	lui	a4,0x8
   13736:	addi	a4,a4,-1
   13738:	or	a5,a5,a4
   1373a:	sh	a5,18(s0)
   1373e:	j	1350c <ediv+0xdc>
   13740:	addi	a1,s1,18
   13744:	lhu	a5,0(s1)
   13748:	addi	s1,s1,2
   1374a:	bnez	a5,13836 <ediv+0x406>
   1374c:	bne	s1,a1,13744 <ediv+0x314>
   13750:	j	13704 <ediv+0x2d4>
   13752:	addi	a5,sp,60
   13754:	addi	s8,sp,80
   13758:	beq	s8,a5,137fc <ediv+0x3cc>
   1375c:	lhu	a4,0(a5)
   13760:	addi	a5,a5,2
   13762:	beqz	a4,13758 <ediv+0x328>
   13764:	addi	a0,sp,56
   13766:	jal	ra,12b9c <enormlz>
   1376a:	neg	a5,a0
   1376e:	lhu	a4,30(sp)
   13772:	sw	a5,12(sp)
   13774:	j	1354e <ediv+0x11e>
   13776:	bgeu	a3,a2,135ee <ediv+0x1be>
   1377a:	addi	a5,s7,-1
   1377e:	slli	a7,a5,0x10
   13782:	srli	a7,a7,0x10
   13786:	li	a3,0
   13788:	addi	a2,sp,52
   1378a:	addi	a4,sp,108
   1378c:	lhu	a5,0(a4) # 8000 <register_fini-0x8074>
   13790:	lhu	a1,0(a2)
   13794:	addi	a4,a4,-2
   13796:	sub	a5,a5,a3
   13798:	sub	a5,a5,a1
   1379a:	srli	a3,a5,0x10
   1379e:	sh	a5,2(a4)
   137a2:	andi	a3,a3,1
   137a4:	addi	a2,a2,-2
   137a6:	bne	a4,s11,1378c <ediv+0x35c>
   137aa:	addi	a4,sp,60
   137ac:	addi	a5,sp,88
   137ae:	lhu	a2,0(a5)
   137b2:	lhu	a3,0(a4)
   137b6:	addi	a5,a5,2
   137b8:	addi	a4,a4,2
   137ba:	bne	a2,a3,137c6 <ediv+0x396>
   137be:	bne	a5,s10,137ae <ediv+0x37e>
   137c2:	mv	s7,a7
   137c4:	j	135ee <ediv+0x1be>
   137c6:	bgeu	a3,a2,137c2 <ediv+0x392>
   137ca:	addi	a0,s7,-2
   137ce:	slli	s7,a0,0x10
   137d2:	srli	s7,s7,0x10
   137d6:	li	a3,0
   137d8:	addi	a2,sp,52
   137da:	addi	a4,sp,108
   137dc:	lhu	a5,0(a4)
   137e0:	lhu	a1,0(a2)
   137e4:	addi	a4,a4,-2
   137e6:	sub	a5,a5,a3
   137e8:	sub	a5,a5,a1
   137ea:	srli	a3,a5,0x10
   137ee:	sh	a5,2(a4)
   137f2:	andi	a3,a3,1
   137f4:	addi	a2,a2,-2
   137f6:	bne	a4,s11,137dc <ediv+0x3ac>
   137fa:	j	135ee <ediv+0x1be>
   137fc:	addi	a5,s0,20
   13800:	addi	s0,s0,2
   13802:	sh	zero,-2(s0)
   13806:	bne	s0,a5,13800 <ediv+0x3d0>
   1380a:	j	1350c <ediv+0xdc>
   1380c:	lhu	a3,28(sp)
   13810:	lhu	a2,56(sp)
   13814:	addi	a4,s0,18
   13818:	mv	a5,s0
   1381a:	sub	a3,a3,a2
   1381c:	snez	a3,a3
   13820:	slli	a3,a3,0xf
   13822:	sh	a3,18(s0)
   13826:	addi	a5,a5,2
   13828:	sh	zero,-2(a5)
   1382c:	bne	a4,a5,13826 <ediv+0x3f6>
   13830:	j	13730 <ediv+0x300>
   13832:	li	a5,0
   13834:	j	13718 <ediv+0x2e8>
   13836:	li	a2,0
   13838:	j	13706 <ediv+0x2d6>
   1383a:	li	a6,1
   1383c:	j	136ee <ediv+0x2be>

0001383e <emul>:
   1383e:	addi	sp,sp,-144
   13840:	sw	s1,132(sp)
   13842:	mv	s1,a0
   13844:	lhu	a0,18(a0)
   13848:	lui	a4,0x8
   1384a:	addi	a4,a4,-1
   1384c:	sw	s0,136(sp)
   1384e:	sw	s2,128(sp)
   13850:	sw	s4,120(sp)
   13852:	sw	ra,140(sp)
   13854:	sw	s3,124(sp)
   13856:	sw	s5,116(sp)
   13858:	sw	s6,112(sp)
   1385a:	sw	s7,108(sp)
   1385c:	sw	s8,104(sp)
   1385e:	sw	s9,100(sp)
   13860:	and	a6,a0,a4
   13864:	mv	s2,a1
   13866:	mv	s0,a2
   13868:	mv	s4,a3
   1386a:	bne	a6,a4,13882 <emul+0x44>
   1386e:	addi	s3,s1,18
   13872:	mv	a4,s1
   13874:	lhu	a2,0(a4) # 8000 <register_fini-0x8074>
   13878:	addi	a4,a4,2
   1387a:	bnez	a2,139ee <emul+0x1b0>
   1387e:	bne	a4,s3,13874 <emul+0x36>
   13882:	lhu	a2,18(s2)
   13886:	lui	a5,0x8
   13888:	addi	a5,a5,-1
   1388a:	and	a1,a2,a5
   1388e:	beq	a1,a5,13906 <emul+0xc8>
   13892:	bne	a6,a5,13a04 <emul+0x1c6>
   13896:	addi	s3,s1,18
   1389a:	mv	a5,s1
   1389c:	lhu	a4,0(a5) # 8000 <register_fini-0x8074>
   138a0:	addi	a5,a5,2
   138a2:	bnez	a4,13a76 <emul+0x238>
   138a6:	bne	s3,a5,1389c <emul+0x5e>
   138aa:	lui	a1,0x1e
   138ac:	addi	a1,a1,-1168 # 1db70 <ezero>
   138b0:	mv	a0,s2
   138b2:	jal	ra,12e7e <ecmp>
   138b6:	beqz	a0,13a54 <emul+0x216>
   138ba:	lhu	a2,18(s2)
   138be:	lui	a5,0x8
   138c0:	addi	a5,a5,-1
   138c2:	and	a1,a2,a5
   138c6:	beq	a1,a5,13a7e <emul+0x240>
   138ca:	lhu	a0,18(s1)
   138ce:	and	a4,a0,a5
   138d2:	bne	a4,a5,13a04 <emul+0x1c6>
   138d6:	mv	a5,s1
   138d8:	lhu	a4,0(a5) # 8000 <register_fini-0x8074>
   138dc:	addi	a5,a5,2
   138de:	bnez	a4,13baa <emul+0x36c>
   138e2:	bne	s3,a5,138d8 <emul+0x9a>
   138e6:	lhu	a5,0(s1)
   138ea:	addi	s1,s1,2
   138ec:	bnez	a5,13b82 <emul+0x344>
   138f0:	bne	s1,s3,138e6 <emul+0xa8>
   138f4:	srli	a4,a0,0xf
   138f8:	lui	a5,0x8
   138fa:	addi	a5,a5,-1
   138fc:	bne	a1,a5,13992 <emul+0x154>
   13900:	addi	a3,s2,18
   13904:	j	13984 <emul+0x146>
   13906:	addi	a3,s2,18
   1390a:	mv	a4,s2
   1390c:	lhu	a5,0(a4)
   13910:	addi	a4,a4,2
   13912:	bnez	a5,13a3e <emul+0x200>
   13916:	bne	a3,a4,1390c <emul+0xce>
   1391a:	lui	a5,0x8
   1391c:	addi	a5,a5,-1
   1391e:	beq	a6,a5,13896 <emul+0x58>
   13922:	mv	a5,s2
   13924:	lhu	a4,0(a5) # 8000 <register_fini-0x8074>
   13928:	addi	a5,a5,2
   1392a:	bnez	a4,139d6 <emul+0x198>
   1392c:	bne	a3,a5,13924 <emul+0xe6>
   13930:	lui	a1,0x1e
   13932:	addi	a1,a1,-1168 # 1db70 <ezero>
   13936:	mv	a0,s1
   13938:	jal	ra,12e7e <ecmp>
   1393c:	beqz	a0,13a54 <emul+0x216>
   13940:	lhu	a0,18(s1)
   13944:	lhu	a2,18(s2)
   13948:	lui	a5,0x8
   1394a:	addi	a5,a5,-1
   1394c:	and	a6,a0,a5
   13950:	and	a1,a2,a5
   13954:	beq	a6,a5,139e8 <emul+0x1aa>
   13958:	lui	a5,0x8
   1395a:	addi	a5,a5,-1
   1395c:	bne	a1,a5,13a04 <emul+0x1c6>
   13960:	addi	a3,s2,18
   13964:	mv	a5,s2
   13966:	lhu	a4,0(a5) # 8000 <register_fini-0x8074>
   1396a:	addi	a5,a5,2
   1396c:	bnez	a4,13a04 <emul+0x1c6>
   1396e:	bne	a5,a3,13966 <emul+0x128>
   13972:	lui	a5,0x8
   13974:	addi	a5,a5,-1
   13976:	srli	a4,a0,0xf
   1397a:	mv	a1,a6
   1397c:	addi	s3,s1,18
   13980:	beq	a6,a5,138e6 <emul+0xa8>
   13984:	lhu	a5,0(s2)
   13988:	addi	s2,s2,2
   1398a:	bnez	a5,13b86 <emul+0x348>
   1398e:	bne	s2,a3,13984 <emul+0x146>
   13992:	srli	a5,a2,0xf
   13996:	xor	a5,a5,a4
   13998:	slli	a5,a5,0xf
   1399a:	sh	a5,18(s0)
   1399e:	addi	a4,s0,18
   139a2:	mv	a5,s0
   139a4:	addi	a5,a5,2
   139a6:	sh	zero,-2(a5) # 7ffe <register_fini-0x8076>
   139aa:	bne	a5,a4,139a4 <emul+0x166>
   139ae:	lhu	a5,18(s0)
   139b2:	lui	a4,0x8
   139b4:	addi	a4,a4,-1
   139b6:	or	a5,a5,a4
   139b8:	sh	a5,18(s0)
   139bc:	lw	ra,140(sp)
   139be:	lw	s0,136(sp)
   139c0:	lw	s1,132(sp)
   139c2:	lw	s2,128(sp)
   139c4:	lw	s3,124(sp)
   139c6:	lw	s4,120(sp)
   139c8:	lw	s5,116(sp)
   139ca:	lw	s6,112(sp)
   139cc:	lw	s7,108(sp)
   139ce:	lw	s8,104(sp)
   139d0:	lw	s9,100(sp)
   139d2:	addi	sp,sp,144
   139d4:	ret
   139d6:	lhu	a0,18(s1)
   139da:	lui	a5,0x8
   139dc:	addi	a5,a5,-1
   139de:	and	a1,a0,a5
   139e2:	mv	a6,a1
   139e4:	bne	a1,a5,13964 <emul+0x126>
   139e8:	addi	s3,s1,18
   139ec:	j	138d6 <emul+0x98>
   139ee:	addi	a4,s0,20
   139f2:	lhu	a5,0(s1)
   139f6:	addi	s0,s0,2
   139f8:	addi	s1,s1,2
   139fa:	sh	a5,-2(s0)
   139fe:	bne	s0,a4,139f2 <emul+0x1b4>
   13a02:	j	139bc <emul+0x17e>
   13a04:	mv	a0,s1
   13a06:	addi	a1,sp,12
   13a08:	jal	ra,12df0 <emovi>
   13a0c:	addi	a1,sp,40
   13a0e:	mv	a0,s2
   13a10:	jal	ra,12df0 <emovi>
   13a14:	lhu	s1,14(sp)
   13a18:	lhu	s3,42(sp)
   13a1c:	bnez	s1,13a84 <emul+0x246>
   13a1e:	addi	a5,sp,16
   13a20:	addi	a3,sp,36
   13a22:	beq	a3,a5,13b8a <emul+0x34c>
   13a26:	lhu	a4,0(a5) # 8000 <register_fini-0x8074>
   13a2a:	addi	a5,a5,2
   13a2c:	beqz	a4,13a22 <emul+0x1e4>
   13a2e:	addi	a0,sp,12
   13a30:	jal	ra,12b9c <enormlz>
   13a34:	lhu	a4,42(sp)
   13a38:	neg	s1,a0
   13a3c:	j	13a86 <emul+0x248>
   13a3e:	addi	a4,s2,20
   13a42:	lhu	a5,0(s2)
   13a46:	addi	s2,s2,2
   13a48:	addi	s0,s0,2
   13a4a:	sh	a5,-2(s0)
   13a4e:	bne	s2,a4,13a42 <emul+0x204>
   13a52:	j	139bc <emul+0x17e>
   13a54:	addi	a4,s0,16
   13a58:	mv	a5,s0
   13a5a:	addi	a5,a5,2
   13a5c:	sh	zero,-2(a5)
   13a60:	bne	a5,a4,13a5a <emul+0x21c>
   13a64:	lui	a5,0xffffc
   13a66:	sh	a5,16(s0)
   13a6a:	lui	a5,0xffff8
   13a6c:	not	a5,a5
   13a70:	sh	a5,18(s0)
   13a74:	j	139bc <emul+0x17e>
   13a76:	lui	a5,0x8
   13a78:	addi	a5,a5,-1
   13a7a:	bne	a1,a5,138d6 <emul+0x98>
   13a7e:	addi	a3,s2,18
   13a82:	j	13922 <emul+0xe4>
   13a84:	mv	a4,s3
   13a86:	mv	s2,s3
   13a88:	addi	a5,sp,44
   13a8a:	addi	a3,sp,64
   13a8c:	bnez	a4,13aa8 <emul+0x26a>
   13a8e:	beq	a5,a3,13b9a <emul+0x35c>
   13a92:	lhu	a4,0(a5) # 8000 <register_fini-0x8074>
   13a96:	addi	a5,a5,2
   13a98:	beqz	a4,13a8e <emul+0x250>
   13a9a:	addi	a0,sp,40
   13a9c:	jal	ra,12b9c <enormlz>
   13aa0:	lhu	a4,42(sp)
   13aa4:	sub	s2,s3,a0
   13aa8:	lhu	a5,40(sp)
   13aac:	addi	s3,s4,56
   13ab0:	sh	a4,54(s4)
   13ab4:	sh	a5,52(s4)
   13ab8:	addi	a4,s4,78
   13abc:	mv	a5,s3
   13abe:	sh	zero,0(a5)
   13ac2:	addi	a5,a5,2
   13ac4:	bne	a5,a4,13abe <emul+0x280>
   13ac8:	addi	s8,s4,76
   13acc:	li	s7,0
   13ace:	addi	s5,sp,36
   13ad2:	addi	s9,sp,16
   13ad6:	addi	s6,sp,70
   13ada:	lhu	a0,0(s5)
   13ade:	addi	s5,s5,-2
   13ae0:	bnez	a0,13b54 <emul+0x316>
   13ae2:	lhu	a5,76(s4)
   13ae6:	mv	a4,s8
   13ae8:	or	s7,s7,a5
   13aec:	lhu	a2,-2(a4) # 7ffe <register_fini-0x8076>
   13af0:	addi	a4,a4,-2
   13af2:	sh	a2,2(a4)
   13af6:	bne	s3,a4,13aec <emul+0x2ae>
   13afa:	sh	zero,56(s4)
   13afe:	bne	s5,s9,13ada <emul+0x29c>
   13b02:	addi	a4,s4,52
   13b06:	addi	a5,sp,40
   13b08:	addi	a2,sp,66
   13b0c:	lhu	a3,0(a4)
   13b10:	addi	a5,a5,2
   13b12:	addi	a4,a4,2
   13b14:	sh	a3,-2(a5)
   13b18:	bne	a5,a2,13b0c <emul+0x2ce>
   13b1c:	lui	a3,0xffffc
   13b1e:	add	s1,s1,s2
   13b20:	addi	a3,a3,2
   13b22:	mv	a1,s7
   13b24:	addi	a0,sp,40
   13b26:	mv	a5,s4
   13b28:	li	a4,64
   13b2c:	add	a3,a3,s1
   13b2e:	li	a2,0
   13b30:	jal	ra,12f5e <emdnorm>
   13b34:	lhu	a4,40(sp)
   13b38:	lhu	a5,12(sp)
   13b3c:	mv	a1,s0
   13b3e:	addi	a0,sp,40
   13b40:	sub	a5,a5,a4
   13b42:	snez	a5,a5
   13b46:	neg	a5,a5
   13b4a:	sh	a5,40(sp)
   13b4e:	jal	ra,12b10 <emovo.constprop.0>
   13b52:	j	139bc <emul+0x17e>
   13b54:	addi	a2,sp,68
   13b56:	addi	a1,sp,40
   13b58:	jal	ra,12aa8 <m16m>
   13b5c:	mv	a0,s8
   13b5e:	li	a1,0
   13b60:	addi	a2,sp,92
   13b62:	lhu	a5,0(a0)
   13b66:	lhu	a4,0(a2)
   13b6a:	addi	a0,a0,-2
   13b6c:	addi	a2,a2,-2
   13b6e:	add	a4,a4,a5
   13b70:	add	a4,a4,a1
   13b72:	srli	a1,a4,0x10
   13b76:	sh	a4,2(a0)
   13b7a:	andi	a1,a1,1
   13b7c:	bne	a2,s6,13b62 <emul+0x324>
   13b80:	j	13ae2 <emul+0x2a4>
   13b82:	li	a4,0
   13b84:	j	138f8 <emul+0xba>
   13b86:	li	a5,0
   13b88:	j	13996 <emul+0x158>
   13b8a:	addi	a5,s0,20
   13b8e:	addi	s0,s0,2
   13b90:	sh	zero,-2(s0)
   13b94:	bne	s0,a5,13b8e <emul+0x350>
   13b98:	j	139bc <emul+0x17e>
   13b9a:	addi	a5,s0,20
   13b9e:	addi	s0,s0,2
   13ba0:	sh	zero,-2(s0)
   13ba4:	bne	s0,a5,13b9e <emul+0x360>
   13ba8:	j	139bc <emul+0x17e>
   13baa:	lui	a6,0x8
   13bac:	addi	a6,a6,-1
   13bae:	j	13958 <emul+0x11a>

00013bb0 <_ldtoa_r>:
   13bb0:	lw	a7,12(a1)
   13bb4:	addi	sp,sp,-496
   13bb6:	lw	t4,0(a1)
   13bba:	lw	t3,4(a1)
   13bbe:	lw	t1,8(a1)
   13bc2:	sw	a7,60(sp)
   13bc4:	lw	a1,64(a0)
   13bc6:	li	a7,-1
   13bc8:	sw	s0,488(sp)
   13bcc:	sw	a7,352(sp)
   13bd0:	mv	s0,a5
   13bd2:	li	a7,144
   13bd6:	li	a5,144
   13bda:	sw	s4,472(sp)
   13bde:	sw	ra,492(sp)
   13be2:	sw	s1,484(sp)
   13be6:	sw	s2,480(sp)
   13bea:	sw	s3,476(sp)
   13bee:	sw	s5,468(sp)
   13bf2:	sw	s6,464(sp)
   13bf6:	sw	s7,460(sp)
   13bfa:	sw	s8,456(sp)
   13bfe:	sw	s9,452(sp)
   13c02:	sw	s10,448(sp)
   13c06:	sw	s11,444(sp)
   13c0a:	sw	t4,48(sp)
   13c0c:	sw	t3,52(sp)
   13c0e:	sw	t1,56(sp)
   13c10:	sw	a7,356(sp)
   13c14:	sw	a2,4(sp)
   13c16:	sw	a3,12(sp)
   13c18:	sw	a4,20(sp)
   13c1a:	sw	a6,24(sp)
   13c1c:	sw	a5,16(sp)
   13c1e:	mv	s4,a0
   13c20:	beqz	a1,13c3c <_ldtoa_r+0x8c>
   13c22:	lw	a4,68(a0)
   13c24:	li	a5,1
   13c26:	sll	a5,a5,a4
   13c2a:	sw	a5,8(a1)
   13c2c:	sw	a4,4(a1)
   13c2e:	jal	ra,15208 <_Bfree>
   13c32:	lw	a5,356(sp)
   13c36:	sw	zero,64(s4)
   13c3a:	sw	a5,16(sp)
   13c3c:	addi	s2,sp,96
   13c40:	mv	a1,s2
   13c42:	addi	a0,sp,48
   13c44:	jal	ra,13338 <e113toe.isra.0>
   13c48:	lhu	a5,114(sp)
   13c4c:	lui	a4,0x8
   13c4e:	addi	a4,a4,-1
   13c50:	and	a1,a5,a4
   13c54:	bne	a1,a4,13c6c <_ldtoa_r+0xbc>
   13c58:	mv	a4,s2
   13c5a:	addi	a2,sp,114
   13c5e:	lhu	a3,0(a4) # 8000 <register_fini-0x8074>
   13c62:	addi	a4,a4,2
   13c64:	bnez	a3,14506 <_ldtoa_r+0x956>
   13c68:	bne	a4,a2,13c5e <_ldtoa_r+0xae>
   13c6c:	srli	a5,a5,0xf
   13c6e:	lw	a4,4(sp)
   13c70:	sw	a5,0(s0)
   13c72:	li	a5,3
   13c74:	beq	a4,a5,142d4 <_ldtoa_r+0x724>
   13c78:	li	a5,20
   13c7a:	sw	a5,8(sp)
   13c7c:	bnez	a4,1450c <_ldtoa_r+0x95c>
   13c80:	lui	a5,0x8
   13c82:	addi	a5,a5,-1
   13c84:	bne	a1,a5,13c9c <_ldtoa_r+0xec>
   13c88:	mv	a5,s2
   13c8a:	addi	a3,sp,114
   13c8e:	lhu	a4,0(a5) # 8000 <register_fini-0x8074>
   13c92:	addi	a5,a5,2
   13c94:	bnez	a4,14332 <_ldtoa_r+0x782>
   13c98:	bne	a5,a3,13c8e <_ldtoa_r+0xde>
   13c9c:	li	a5,144
   13ca0:	sw	a5,356(sp)
   13ca4:	addi	a4,sp,124
   13ca6:	mv	a5,s2
   13ca8:	addi	a2,sp,116
   13caa:	lhu	a3,0(a5)
   13cae:	addi	a5,a5,2
   13cb0:	addi	a4,a4,2
   13cb2:	sh	a3,-2(a4)
   13cb6:	bne	a5,a2,13caa <_ldtoa_r+0xfa>
   13cba:	lhu	a2,142(sp)
   13cbe:	sw	zero,0(sp)
   13cc0:	slli	a5,a2,0x10
   13cc4:	srai	a5,a5,0x10
   13cc6:	bltz	a5,140b2 <_ldtoa_r+0x502>
   13cca:	lui	s6,0x1e
   13ccc:	addi	s8,s6,-1168 # 1db70 <ezero>
   13cd0:	addi	s7,s8,20
   13cd4:	li	a3,0
   13cd6:	addi	a5,sp,152
   13cd8:	mv	a4,s7
   13cda:	addi	s11,sp,172
   13cde:	j	13ce4 <_ldtoa_r+0x134>
   13ce0:	lhu	a3,0(a4)
   13ce4:	addi	a5,a5,2
   13ce6:	sh	a3,-2(a5)
   13cea:	addi	a4,a4,2
   13cec:	bne	a5,s11,13ce0 <_ldtoa_r+0x130>
   13cf0:	beqz	a2,13dd6 <_ldtoa_r+0x226>
   13cf4:	lui	a5,0x8
   13cf6:	addi	a5,a5,-1
   13cf8:	beq	a2,a5,14660 <_ldtoa_r+0xab0>
   13cfc:	lh	a5,140(sp)
   13d00:	bgez	a5,146c2 <_ldtoa_r+0xb12>
   13d04:	addi	a1,sp,124
   13d06:	mv	a0,s7
   13d08:	jal	ra,12e7e <ecmp>
   13d0c:	beqz	a0,13de8 <_ldtoa_r+0x238>
   13d0e:	bltz	a0,1434a <_ldtoa_r+0x79a>
   13d12:	lhu	a5,142(sp)
   13d16:	bnez	a5,1473c <_ldtoa_r+0xb8c>
   13d1a:	lh	a5,140(sp)
   13d1e:	li	s1,0
   13d20:	addi	s3,sp,352
   13d24:	bltz	a5,13d40 <_ldtoa_r+0x190>
   13d28:	addi	s0,s8,280
   13d2c:	addi	a2,sp,124
   13d2e:	mv	a3,s3
   13d30:	mv	a1,a2
   13d32:	mv	a0,s0
   13d34:	jal	1383e <emul>
   13d36:	lh	a5,140(sp)
   13d3a:	addi	s1,s1,-1
   13d3c:	bgez	a5,13d2c <_ldtoa_r+0x17c>
   13d40:	addi	s0,sp,208
   13d42:	addi	s5,sp,232
   13d46:	mv	a4,s0
   13d48:	addi	a5,sp,124
   13d4a:	addi	a2,sp,144
   13d4c:	lhu	a3,0(a5) # 8000 <register_fini-0x8074>
   13d50:	addi	a5,a5,2
   13d52:	addi	a4,a4,2
   13d54:	sh	a3,-2(a4)
   13d58:	bne	a5,a2,13d4c <_ldtoa_r+0x19c>
   13d5c:	li	a3,0
   13d5e:	addi	a5,sp,152
   13d60:	mv	a4,s7
   13d62:	j	13d68 <_ldtoa_r+0x1b8>
   13d64:	lhu	a3,0(a4)
   13d68:	addi	a5,a5,2
   13d6a:	sh	a3,-2(a5)
   13d6e:	addi	a4,a4,2
   13d70:	bne	a5,s11,13d64 <_ldtoa_r+0x1b4>
   13d74:	addi	s11,s8,40
   13d78:	addi	s9,s8,300
   13d7c:	lui	s10,0xfffff
   13d7e:	addi	s8,s8,540
   13d82:	j	13d88 <_ldtoa_r+0x1d8>
   13d84:	addi	s9,s9,20
   13d86:	addi	s11,s11,20
   13d88:	mv	a1,s0
   13d8a:	mv	a0,s7
   13d8c:	jal	ra,12e7e <ecmp>
   13d90:	blez	a0,13dc4 <_ldtoa_r+0x214>
   13d94:	mv	a1,s0
   13d96:	mv	a0,s9
   13d98:	jal	ra,12e7e <ecmp>
   13d9c:	bltz	a0,13db6 <_ldtoa_r+0x206>
   13da0:	mv	a3,s3
   13da2:	mv	a2,s0
   13da4:	mv	a1,s0
   13da6:	mv	a0,s11
   13da8:	jal	1383e <emul>
   13daa:	addi	a2,sp,152
   13dac:	mv	a3,s3
   13dae:	mv	a1,a2
   13db0:	mv	a0,s11
   13db2:	jal	1383e <emul>
   13db4:	add	s1,s1,s10
   13db6:	srli	a5,s10,0x1f
   13dba:	add	a5,a5,s10
   13dbc:	srai	s10,a5,0x1
   13dc0:	bne	s9,s8,13d84 <_ldtoa_r+0x1d4>
   13dc4:	addi	a2,sp,152
   13dc6:	mv	a3,s3
   13dc8:	mv	a1,s7
   13dca:	mv	a0,a2
   13dcc:	jal	ra,13430 <ediv>
   13dd0:	addi	s9,sp,292
   13dd4:	j	13df8 <_ldtoa_r+0x248>
   13dd6:	addi	a5,sp,124
   13dd8:	addi	a3,sp,142
   13ddc:	lhu	a4,0(a5)
   13de0:	bnez	a4,13d04 <_ldtoa_r+0x154>
   13de2:	addi	a5,a5,2
   13de4:	bne	a5,a3,13ddc <_ldtoa_r+0x22c>
   13de8:	li	s1,0
   13dea:	addi	s9,sp,292
   13dee:	addi	s3,sp,352
   13df2:	addi	s0,sp,208
   13df4:	addi	s5,sp,232
   13df8:	mv	a1,s0
   13dfa:	addi	a0,sp,152
   13dfc:	jal	ra,12df0 <emovi>
   13e00:	addi	a4,sp,152
   13e02:	mv	a5,s0
   13e04:	lhu	a3,0(a5)
   13e08:	addi	a5,a5,2
   13e0a:	addi	a4,a4,2
   13e0c:	sh	a3,-2(a4)
   13e10:	bne	a5,s5,13e04 <_ldtoa_r+0x254>
   13e14:	mv	a1,s0
   13e16:	addi	a0,sp,124
   13e18:	sh	zero,176(sp)
   13e1c:	jal	ra,12df0 <emovi>
   13e20:	addi	a5,sp,124
   13e22:	lhu	a4,0(s0)
   13e26:	addi	s0,s0,2
   13e28:	addi	a5,a5,2
   13e2a:	sh	a4,-2(a5)
   13e2e:	bne	s0,s5,13e22 <_ldtoa_r+0x272>
   13e32:	addi	a0,sp,152
   13e34:	mv	a2,s3
   13e36:	addi	a1,sp,124
   13e38:	sh	zero,148(sp)
   13e3c:	jal	ra,1324a <eiremain>
   13e40:	lhu	a0,428(sp)
   13e44:	bnez	a0,13f52 <_ldtoa_r+0x3a2>
   13e48:	addi	s7,sp,148
   13e4c:	addi	s10,sp,126
   13e50:	addi	s0,sp,182
   13e54:	addi	a1,s6,-1168
   13e58:	addi	a0,sp,124
   13e5a:	jal	ra,12e7e <ecmp>
   13e5e:	beqz	a0,13f52 <_ldtoa_r+0x3a2>
   13e60:	li	a4,0
   13e62:	mv	a3,s7
   13e64:	lhu	a5,0(a3) # ffffc000 <__BSS_END__+0xfffdc5c8>
   13e68:	slli	a2,a5,0x10
   13e6c:	srai	a2,a2,0x10
   13e6e:	bgez	a2,13e76 <_ldtoa_r+0x2c6>
   13e72:	ori	a4,a4,1
   13e76:	slli	a5,a5,0x1
   13e78:	slli	a5,a5,0x10
   13e7a:	andi	a2,a4,2
   13e7e:	srli	a5,a5,0x10
   13e80:	beqz	a2,13e86 <_ldtoa_r+0x2d6>
   13e82:	ori	a5,a5,1
   13e86:	slli	a4,a4,0x1
   13e88:	sh	a5,0(a3)
   13e8c:	slli	a4,a4,0x10
   13e8e:	addi	a3,a3,-2
   13e90:	srli	a4,a4,0x10
   13e92:	bne	a3,s10,13e64 <_ldtoa_r+0x2b4>
   13e96:	addi	a4,sp,180
   13e98:	addi	a5,sp,124
   13e9a:	lhu	a3,0(a5)
   13e9e:	addi	a5,a5,2
   13ea0:	addi	a4,a4,2
   13ea2:	sh	a3,-2(a4)
   13ea6:	bne	a5,s7,13e9a <_ldtoa_r+0x2ea>
   13eaa:	sh	zero,204(sp)
   13eae:	li	a4,0
   13eb0:	addi	a3,sp,204
   13eb2:	lhu	a5,0(a3)
   13eb6:	slli	a2,a5,0x10
   13eba:	srai	a2,a2,0x10
   13ebc:	bgez	a2,13ec4 <_ldtoa_r+0x314>
   13ec0:	ori	a4,a4,1
   13ec4:	slli	a5,a5,0x1
   13ec6:	slli	a5,a5,0x10
   13ec8:	andi	a2,a4,2
   13ecc:	srli	a5,a5,0x10
   13ece:	beqz	a2,13ed4 <_ldtoa_r+0x324>
   13ed0:	ori	a5,a5,1
   13ed4:	slli	a4,a4,0x1
   13ed6:	sh	a5,0(a3)
   13eda:	slli	a4,a4,0x10
   13edc:	addi	a3,a3,-2
   13ede:	srli	a4,a4,0x10
   13ee0:	bne	a3,s0,13eb2 <_ldtoa_r+0x302>
   13ee4:	li	a4,0
   13ee6:	addi	a3,sp,204
   13ee8:	lhu	a5,0(a3)
   13eec:	slli	a2,a5,0x10
   13ef0:	srai	a2,a2,0x10
   13ef2:	bgez	a2,13efa <_ldtoa_r+0x34a>
   13ef6:	ori	a4,a4,1
   13efa:	slli	a5,a5,0x1
   13efc:	slli	a5,a5,0x10
   13efe:	andi	a2,a4,2
   13f02:	srli	a5,a5,0x10
   13f04:	beqz	a2,13f0a <_ldtoa_r+0x35a>
   13f06:	ori	a5,a5,1
   13f0a:	slli	a4,a4,0x1
   13f0c:	sh	a5,0(a3)
   13f10:	slli	a4,a4,0x10
   13f12:	addi	a3,a3,-2
   13f14:	srli	a4,a4,0x10
   13f16:	bne	a3,s0,13ee8 <_ldtoa_r+0x338>
   13f1a:	li	a2,0
   13f1c:	mv	a3,s7
   13f1e:	addi	a4,sp,204
   13f20:	lhu	a1,0(a3)
   13f24:	lhu	a5,0(a4)
   13f28:	addi	a3,a3,-2
   13f2a:	addi	a4,a4,-2
   13f2c:	add	a5,a5,a1
   13f2e:	add	a5,a5,a2
   13f30:	srli	a2,a5,0x10
   13f34:	sh	a5,2(a3)
   13f38:	andi	a2,a2,1
   13f3a:	bne	a4,s0,13f20 <_ldtoa_r+0x370>
   13f3e:	addi	a0,sp,152
   13f40:	mv	a2,s3
   13f42:	addi	a1,sp,124
   13f44:	jal	ra,1324a <eiremain>
   13f48:	lhu	a0,428(sp)
   13f4c:	addi	s1,s1,-1
   13f4e:	beqz	a0,13e54 <_ldtoa_r+0x2a4>
   13f52:	lw	a5,0(sp)
   13f54:	lw	a3,4(sp)
   13f56:	li	a4,3
   13f58:	snez	a5,a5
   13f5c:	neg	a5,a5
   13f60:	andi	a5,a5,13
   13f62:	addi	a5,a5,32
   13f66:	sb	a5,292(sp)
   13f6a:	lw	a5,8(sp)
   13f6c:	bne	a3,a4,13f72 <_ldtoa_r+0x3c2>
   13f70:	add	a5,a5,s1
   13f72:	li	a4,42
   13f76:	sw	a5,0(sp)
   13f78:	bge	a4,a5,13f7e <_ldtoa_r+0x3ce>
   13f7c:	sw	a4,0(sp)
   13f7e:	li	a4,10
   13f80:	beq	a0,a4,14308 <_ldtoa_r+0x758>
   13f84:	addi	a0,a0,48
   13f88:	li	a4,46
   13f8c:	sb	a0,293(sp)
   13f90:	sb	a4,294(sp)
   13f94:	bltz	a5,140c2 <_ldtoa_r+0x512>
   13f98:	addi	s8,sp,295
   13f9c:	li	s0,0
   13f9e:	addi	s10,sp,180
   13fa2:	addi	s11,sp,148
   13fa6:	addi	s5,sp,126
   13faa:	addi	s7,sp,182
   13fae:	li	a2,0
   13fb0:	mv	a1,s11
   13fb2:	lhu	a5,0(a1)
   13fb6:	slli	a0,a5,0x10
   13fba:	srai	a0,a0,0x10
   13fbc:	bgez	a0,13fc4 <_ldtoa_r+0x414>
   13fc0:	ori	a2,a2,1
   13fc4:	slli	a5,a5,0x1
   13fc6:	slli	a5,a5,0x10
   13fc8:	andi	a0,a2,2
   13fcc:	srli	a5,a5,0x10
   13fce:	beqz	a0,13fd4 <_ldtoa_r+0x424>
   13fd0:	ori	a5,a5,1
   13fd4:	slli	a2,a2,0x1
   13fd6:	sh	a5,0(a1)
   13fda:	slli	a2,a2,0x10
   13fdc:	addi	a1,a1,-2
   13fde:	srli	a2,a2,0x10
   13fe0:	bne	a1,s5,13fb2 <_ldtoa_r+0x402>
   13fe4:	mv	a2,s10
   13fe6:	addi	a5,sp,124
   13fe8:	lhu	a1,0(a5)
   13fec:	addi	a5,a5,2
   13fee:	addi	a2,a2,2
   13ff0:	sh	a1,-2(a2)
   13ff4:	bne	a5,s11,13fe8 <_ldtoa_r+0x438>
   13ff8:	sh	zero,204(sp)
   13ffc:	li	a2,0
   13ffe:	addi	a1,sp,204
   14000:	lhu	a5,0(a1)
   14004:	slli	a0,a5,0x10
   14008:	srai	a0,a0,0x10
   1400a:	bgez	a0,14012 <_ldtoa_r+0x462>
   1400e:	ori	a2,a2,1
   14012:	slli	a5,a5,0x1
   14014:	slli	a5,a5,0x10
   14016:	andi	a0,a2,2
   1401a:	srli	a5,a5,0x10
   1401c:	beqz	a0,14022 <_ldtoa_r+0x472>
   1401e:	ori	a5,a5,1
   14022:	slli	a2,a2,0x1
   14024:	sh	a5,0(a1)
   14028:	slli	a2,a2,0x10
   1402a:	addi	a1,a1,-2
   1402c:	srli	a2,a2,0x10
   1402e:	bne	a1,s7,14000 <_ldtoa_r+0x450>
   14032:	li	a2,0
   14034:	addi	a1,sp,204
   14036:	lhu	a5,0(a1)
   1403a:	slli	a0,a5,0x10
   1403e:	srai	a0,a0,0x10
   14040:	bgez	a0,14048 <_ldtoa_r+0x498>
   14044:	ori	a2,a2,1
   14048:	slli	a5,a5,0x1
   1404a:	slli	a5,a5,0x10
   1404c:	andi	a0,a2,2
   14050:	srli	a5,a5,0x10
   14052:	beqz	a0,14058 <_ldtoa_r+0x4a8>
   14054:	ori	a5,a5,1
   14058:	slli	a2,a2,0x1
   1405a:	sh	a5,0(a1)
   1405e:	slli	a2,a2,0x10
   14060:	addi	a1,a1,-2
   14062:	srli	a2,a2,0x10
   14064:	bne	a1,s7,14036 <_ldtoa_r+0x486>
   14068:	li	a0,0
   1406a:	mv	a1,s11
   1406c:	addi	a2,sp,204
   1406e:	lhu	a7,0(a1)
   14072:	lhu	a5,0(a2)
   14076:	addi	a1,a1,-2
   14078:	addi	a2,a2,-2
   1407a:	add	a5,a5,a7
   1407c:	add	a5,a5,a0
   1407e:	srli	a0,a5,0x10
   14082:	sh	a5,2(a1)
   14086:	andi	a0,a0,1
   14088:	bne	a2,s7,1406e <_ldtoa_r+0x4be>
   1408c:	mv	a2,s3
   1408e:	addi	a1,sp,124
   14090:	addi	a0,sp,152
   14092:	jal	ra,1324a <eiremain>
   14096:	lhu	a2,428(sp)
   1409a:	lw	a4,0(sp)
   1409c:	addi	a5,s8,1
   140a0:	addi	a1,a2,48
   140a4:	addi	s0,s0,1
   140a6:	sb	a1,-1(a5)
   140aa:	blt	a4,s0,140ce <_ldtoa_r+0x51e>
   140ae:	mv	s8,a5
   140b0:	j	13fae <_ldtoa_r+0x3fe>
   140b2:	slli	a2,a2,0x11
   140b4:	lui	a5,0x10
   140b6:	srli	a2,a2,0x11
   140b8:	addi	a5,a5,-1
   140ba:	sh	a2,142(sp)
   140be:	sw	a5,0(sp)
   140c0:	j	13cca <_ldtoa_r+0x11a>
   140c2:	lhu	a2,428(sp)
   140c6:	addi	s8,sp,294
   140ca:	addi	a5,sp,295
   140ce:	li	a4,4
   140d0:	bge	a4,a2,1411a <_ldtoa_r+0x56a>
   140d4:	li	a4,5
   140d6:	beq	a2,a4,146da <_ldtoa_r+0xb2a>
   140da:	lbu	a4,-2(a5) # fffe <register_fini-0x76>
   140de:	lw	a2,0(sp)
   140e0:	addi	a3,a5,-2
   140e4:	andi	a4,a4,127
   140e8:	bltz	a2,14110 <_ldtoa_r+0x560>
   140ec:	li	a5,46
   140f0:	li	a2,56
   140f4:	li	a1,48
   140f8:	beq	a4,a5,14684 <_ldtoa_r+0xad4>
   140fc:	bge	a2,a4,1469c <_ldtoa_r+0xaec>
   14100:	lbu	a4,-1(a3)
   14104:	sb	a1,0(a3)
   14108:	addi	a3,a3,-1
   1410a:	andi	a4,a4,127
   1410e:	j	140f8 <_ldtoa_r+0x548>
   14110:	li	a4,49
   14114:	sb	a4,-2(a5)
   14118:	addi	s1,s1,1
   1411a:	lui	a1,0x1e
   1411c:	mv	a2,s1
   1411e:	addi	a1,a1,-1300 # 1daec <zeroes.0+0x2c>
   14122:	mv	a0,s8
   14124:	jal	ra,15e56 <sprintf>
   14128:	lhu	a5,114(sp)
   1412c:	lw	a4,16(sp)
   1412e:	sw	s1,368(sp)
   14132:	not	a5,a5
   14136:	sw	a4,356(sp)
   1413a:	slli	a4,a5,0x11
   1413e:	beqz	a4,1427a <_ldtoa_r+0x6ca>
   14142:	lw	a3,20(sp)
   14144:	lbu	a4,292(sp)
   14148:	addi	a5,s1,1
   1414c:	sw	a5,0(a3)
   1414e:	mv	a5,s9
   14150:	beqz	a4,1417a <_ldtoa_r+0x5ca>
   14152:	li	a3,46
   14156:	beq	a4,a3,142e4 <_ldtoa_r+0x734>
   1415a:	lbu	a4,1(a5)
   1415e:	addi	a5,a5,1
   14160:	bnez	a4,14156 <_ldtoa_r+0x5a6>
   14162:	li	a3,69
   14166:	bltu	s9,a5,14170 <_ldtoa_r+0x5c0>
   1416a:	j	1417a <_ldtoa_r+0x5ca>
   1416c:	beq	a5,s9,1417a <_ldtoa_r+0x5ca>
   14170:	lbu	a4,-1(a5)
   14174:	addi	a5,a5,-1
   14176:	bne	a4,a3,1416c <_ldtoa_r+0x5bc>
   1417a:	sb	zero,0(a5)
   1417e:	mv	a5,s9
   14180:	li	a3,32
   14184:	li	a2,45
   14188:	lbu	a4,0(a5)
   1418c:	beq	a4,a3,14194 <_ldtoa_r+0x5e4>
   14190:	bne	a4,a2,14198 <_ldtoa_r+0x5e8>
   14194:	addi	a5,a5,1
   14196:	j	14188 <_ldtoa_r+0x5d8>
   14198:	mv	s0,s9
   1419a:	j	141a2 <_ldtoa_r+0x5f2>
   1419c:	lbu	a4,0(a5)
   141a0:	mv	s0,a3
   141a2:	sb	a4,0(s0)
   141a6:	addi	a3,s0,1
   141aa:	addi	a5,a5,1
   141ac:	bnez	a4,1419c <_ldtoa_r+0x5ec>
   141ae:	lw	a4,4(sp)
   141b0:	li	a5,2
   141b2:	lbu	a3,-1(s0)
   141b6:	beq	a4,a5,1429a <_ldtoa_r+0x6ea>
   141ba:	lw	a5,8(sp)
   141bc:	mv	a4,a5
   141be:	bge	a5,s1,141c4 <_ldtoa_r+0x614>
   141c2:	mv	a4,s1
   141c4:	li	a5,48
   141c8:	bne	a3,a5,141f0 <_ldtoa_r+0x640>
   141cc:	sub	a5,s0,s9
   141d0:	bge	a4,a5,141f0 <_ldtoa_r+0x640>
   141d4:	li	a3,48
   141d8:	j	141e2 <_ldtoa_r+0x632>
   141da:	sub	a5,s0,s9
   141de:	bge	a4,a5,141f0 <_ldtoa_r+0x640>
   141e2:	lbu	a5,-2(s0)
   141e6:	sb	zero,-1(s0)
   141ea:	addi	s0,s0,-1
   141ec:	beq	a5,a3,141da <_ldtoa_r+0x62a>
   141f0:	lw	a4,4(sp)
   141f2:	li	a5,3
   141f4:	beq	a4,a5,142ae <_ldtoa_r+0x6fe>
   141f8:	lw	a5,12(sp)
   141fa:	sw	zero,68(s4)
   141fe:	addi	a2,a5,9
   14202:	li	a5,23
   14204:	bgeu	a5,a2,142d0 <_ldtoa_r+0x720>
   14208:	li	a4,1
   1420a:	li	a5,4
   1420c:	slli	a5,a5,0x1
   1420e:	addi	a3,a5,20
   14212:	mv	a1,a4
   14214:	addi	a4,a4,1
   14216:	bgeu	a2,a3,1420c <_ldtoa_r+0x65c>
   1421a:	sw	a1,68(s4)
   1421e:	mv	a0,s4
   14220:	jal	ra,151a2 <_Balloc>
   14224:	mv	s1,a0
   14226:	beqz	a0,14872 <_ldtoa_r+0xcc2>
   1422a:	sw	a0,64(s4)
   1422e:	mv	a1,s9
   14230:	jal	ra,15f78 <strcpy>
   14234:	lw	a4,24(sp)
   14236:	beqz	a4,14240 <_ldtoa_r+0x690>
   14238:	sub	a5,s0,s9
   1423c:	add	a5,a5,s1
   1423e:	sw	a5,0(a4)
   14240:	lw	ra,492(sp)
   14244:	lw	s0,488(sp)
   14248:	lw	s2,480(sp)
   1424c:	lw	s3,476(sp)
   14250:	lw	s4,472(sp)
   14254:	lw	s5,468(sp)
   14258:	lw	s6,464(sp)
   1425c:	lw	s7,460(sp)
   14260:	lw	s8,456(sp)
   14264:	lw	s9,452(sp)
   14268:	lw	s10,448(sp)
   1426c:	lw	s11,444(sp)
   14270:	mv	a0,s1
   14272:	lw	s1,484(sp)
   14276:	addi	sp,sp,496
   14278:	ret
   1427a:	mv	a5,s2
   1427c:	addi	a3,sp,114
   14280:	lhu	a4,0(a5)
   14284:	addi	a5,a5,2
   14286:	bnez	a4,146a4 <_ldtoa_r+0xaf4>
   1428a:	bne	a5,a3,14280 <_ldtoa_r+0x6d0>
   1428e:	lw	a4,20(sp)
   14290:	lui	a5,0x2
   14292:	addi	a5,a5,1807 # 270f <register_fini-0xd965>
   14296:	sw	a5,0(a4)
   14298:	j	1417e <_ldtoa_r+0x5ce>
   1429a:	li	a5,48
   1429e:	bne	a3,a5,141f8 <_ldtoa_r+0x648>
   142a2:	sub	a5,s0,s9
   142a6:	li	a4,1
   142a8:	blt	a4,a5,141d4 <_ldtoa_r+0x624>
   142ac:	j	141f8 <_ldtoa_r+0x648>
   142ae:	lw	a5,8(sp)
   142b0:	add	s1,s1,a5
   142b2:	bltz	s1,14642 <_ldtoa_r+0xa92>
   142b6:	lw	a5,20(sp)
   142b8:	lw	a4,12(sp)
   142ba:	lw	a5,0(a5)
   142bc:	add	a5,a5,a4
   142be:	sw	a5,12(sp)
   142c0:	lw	a5,12(sp)
   142c2:	sw	zero,68(s4)
   142c6:	addi	a2,a5,3
   142ca:	li	a5,23
   142cc:	bltu	a5,a2,14208 <_ldtoa_r+0x658>
   142d0:	li	a1,0
   142d2:	j	1421e <_ldtoa_r+0x66e>
   142d4:	lw	s8,12(sp)
   142d6:	sw	s8,8(sp)
   142d8:	li	a5,42
   142dc:	bge	a5,s8,13c80 <_ldtoa_r+0xd0>
   142e0:	sw	a5,8(sp)
   142e2:	j	13c80 <_ldtoa_r+0xd0>
   142e4:	lbu	a4,0(a5)
   142e8:	beqz	a4,14162 <_ldtoa_r+0x5b2>
   142ec:	lbu	a4,1(a5)
   142f0:	addi	a5,a5,1
   142f2:	sb	a4,-1(a5)
   142f6:	beqz	a4,14162 <_ldtoa_r+0x5b2>
   142fa:	lbu	a4,1(a5)
   142fe:	addi	a5,a5,1
   14300:	sb	a4,-1(a5)
   14304:	bnez	a4,142ec <_ldtoa_r+0x73c>
   14306:	j	14162 <_ldtoa_r+0x5b2>
   14308:	li	a4,49
   1430c:	sb	a4,293(sp)
   14310:	li	a4,46
   14314:	sb	a4,294(sp)
   14318:	addi	s1,s1,1
   1431a:	blez	a5,144fc <_ldtoa_r+0x94c>
   1431e:	li	a5,48
   14322:	sb	a5,295(sp)
   14326:	lw	a5,0(sp)
   14328:	addi	s8,sp,296
   1432c:	addi	a5,a5,-1
   1432e:	sw	a5,0(sp)
   14330:	j	13f9c <_ldtoa_r+0x3ec>
   14332:	addi	s9,sp,292
   14336:	lui	a1,0x1e
   14338:	addi	a1,a1,-1176 # 1db68 <zeroes.0+0xa8>
   1433c:	mv	a0,s9
   1433e:	lui	s1,0x2
   14340:	jal	ra,15e56 <sprintf>
   14344:	addi	s1,s1,1807 # 270f <register_fini-0xd965>
   14348:	j	14128 <_ldtoa_r+0x578>
   1434a:	addi	s10,sp,180
   1434e:	mv	a4,s10
   14350:	addi	a5,sp,124
   14352:	addi	a2,sp,144
   14354:	lhu	a3,0(a5)
   14358:	addi	a5,a5,2
   1435a:	addi	a4,a4,2
   1435c:	sh	a3,-2(a4)
   14360:	bne	a5,a2,14354 <_ldtoa_r+0x7a4>
   14364:	lui	a5,0x4
   14366:	addi	a5,a5,142 # 408e <register_fini-0xbfe6>
   1436a:	sh	a5,198(sp)
   1436e:	li	a5,16
   14370:	sw	a5,28(sp)
   14372:	lui	a5,0x8
   14374:	addi	a5,a5,-1
   14376:	sw	a5,36(sp)
   14378:	lui	a5,0xffffc
   1437a:	addi	a5,a5,2
   1437c:	li	s1,0
   1437e:	addi	t1,s8,200
   14382:	addi	s9,sp,292
   14386:	addi	s3,sp,352
   1438a:	addi	s0,sp,208
   1438c:	addi	s5,sp,170
   14390:	sw	a5,40(sp)
   14392:	mv	a0,t1
   14394:	mv	a3,s3
   14396:	addi	a2,sp,152
   14398:	mv	a1,s10
   1439a:	sw	t1,32(sp)
   1439c:	jal	ra,13430 <ediv>
   143a0:	lw	t1,32(sp)
   143a2:	addi	a4,sp,76
   143a4:	addi	a5,sp,152
   143a6:	lhu	a3,0(a5) # ffffc000 <__BSS_END__+0xfffdc5c8>
   143aa:	addi	a5,a5,2
   143ac:	addi	a4,a4,2
   143ae:	sh	a3,-2(a4)
   143b2:	bne	a5,s11,143a6 <_ldtoa_r+0x7f6>
   143b6:	lw	a5,36(sp)
   143b8:	lhu	a1,94(sp)
   143bc:	and	a0,a1,a5
   143c0:	lw	a5,40(sp)
   143c2:	add	a0,a0,a5
   143c4:	blez	a0,14650 <_ldtoa_r+0xaa0>
   143c8:	li	a2,144
   143cc:	sub	a2,a2,a0
   143ce:	mv	a4,s0
   143d0:	addi	a5,sp,76
   143d2:	lhu	a3,0(a5)
   143d6:	addi	a5,a5,2
   143d8:	addi	a4,a4,2
   143da:	sh	a3,-2(a4)
   143de:	bne	a5,s2,143d2 <_ldtoa_r+0x822>
   143e2:	blez	a2,14430 <_ldtoa_r+0x880>
   143e6:	li	a5,15
   143e8:	mv	a4,s0
   143ea:	bge	a5,a2,14414 <_ldtoa_r+0x864>
   143ee:	li	a3,128
   143f2:	sub	a3,a3,a0
   143f4:	srli	a3,a3,0x4
   143f6:	addi	a4,a3,1
   143fa:	slli	a4,a4,0x1
   143fc:	add	a4,a4,s0
   143fe:	mv	a5,s0
   14400:	addi	a5,a5,2
   14402:	sh	zero,-2(a5)
   14406:	bne	a4,a5,14400 <_ldtoa_r+0x850>
   1440a:	li	a2,128
   1440e:	sub	a2,a2,a0
   14410:	slli	a3,a3,0x4
   14412:	sub	a2,a2,a3
   14414:	slli	a5,a2,0x1
   14418:	add	a5,a5,s8
   1441a:	lhu	a3,0(a4)
   1441e:	lhu	a5,560(a5)
   14422:	and	a5,a5,a3
   14424:	sh	a5,0(a4)
   14428:	slli	a1,a1,0x10
   1442a:	srai	a1,a1,0x10
   1442c:	bltz	a1,14514 <_ldtoa_r+0x964>
   14430:	addi	a5,sp,152
   14432:	mv	a4,s0
   14434:	lhu	a2,0(a5)
   14438:	lhu	a3,0(a4)
   1443c:	bne	a2,a3,14460 <_ldtoa_r+0x8b0>
   14440:	addi	a5,a5,2
   14442:	addi	a4,a4,2
   14444:	bne	s5,a5,14434 <_ldtoa_r+0x884>
   14448:	mv	a4,s10
   1444a:	addi	a5,sp,152
   1444c:	lhu	a3,0(a5)
   14450:	addi	a5,a5,2
   14452:	addi	a4,a4,2
   14454:	sh	a3,-2(a4)
   14458:	bne	a5,s11,1444c <_ldtoa_r+0x89c>
   1445c:	lw	a5,28(sp)
   1445e:	add	s1,s1,a5
   14460:	lw	a4,28(sp)
   14462:	addi	t1,t1,20
   14464:	addi	a5,s8,300
   14468:	srli	a4,a4,0x1
   1446a:	sw	a4,28(sp)
   1446c:	bne	t1,a5,14392 <_ldtoa_r+0x7e2>
   14470:	lhu	a5,198(sp)
   14474:	lhu	a4,142(sp)
   14478:	addi	a2,sp,200
   1447a:	add	a5,a5,a4
   1447c:	lui	a4,0xffffc
   1447e:	addi	a4,a4,-142 # ffffbf72 <__BSS_END__+0xfffdc53a>
   14482:	add	a5,a5,a4
   14484:	sh	a5,198(sp)
   14488:	addi	a4,sp,124
   1448a:	mv	a5,s10
   1448c:	lhu	a3,0(a5)
   14490:	addi	a5,a5,2
   14492:	addi	a4,a4,2
   14494:	sh	a3,-2(a4)
   14498:	bne	a5,a2,1448c <_ldtoa_r+0x8dc>
   1449c:	li	a4,0
   1449e:	addi	a5,sp,152
   144a0:	j	144a6 <_ldtoa_r+0x8f6>
   144a2:	lhu	a4,0(s7)
   144a6:	addi	a5,a5,2
   144a8:	sh	a4,-2(a5)
   144ac:	addi	s7,s7,2
   144ae:	bne	a5,s11,144a2 <_ldtoa_r+0x8f2>
   144b2:	addi	s5,s8,40
   144b6:	lui	s11,0x1
   144b8:	addi	s8,s8,280
   144bc:	j	144c8 <_ldtoa_r+0x918>
   144be:	srli	s11,s11,0x1
   144c2:	beq	s5,s8,1467c <_ldtoa_r+0xacc>
   144c6:	addi	s5,s5,20
   144c8:	mv	a1,s10
   144ca:	mv	a0,s8
   144cc:	jal	ra,12e7e <ecmp>
   144d0:	bgtz	a0,1467c <_ldtoa_r+0xacc>
   144d4:	mv	a1,s10
   144d6:	mv	a0,s5
   144d8:	jal	ra,12e7e <ecmp>
   144dc:	bgtz	a0,144be <_ldtoa_r+0x90e>
   144e0:	mv	a3,s3
   144e2:	mv	a2,s10
   144e4:	mv	a1,s10
   144e6:	mv	a0,s5
   144e8:	jal	ra,13430 <ediv>
   144ec:	addi	a2,sp,152
   144ee:	mv	a3,s3
   144f0:	mv	a1,a2
   144f2:	mv	a0,s5
   144f4:	jal	ra,1383e <emul>
   144f8:	add	s1,s1,s11
   144fa:	j	144be <_ldtoa_r+0x90e>
   144fc:	addi	s8,sp,295
   14500:	bnez	a5,1411a <_ldtoa_r+0x56a>
   14504:	j	13f9c <_ldtoa_r+0x3ec>
   14506:	li	a5,0
   14508:	j	13c6e <_ldtoa_r+0xbe>
   1450c:	lw	a5,12(sp)
   1450e:	addi	s8,a5,-1
   14512:	j	142d6 <_ldtoa_r+0x726>
   14514:	addi	a5,sp,76
   14516:	mv	a4,s0
   14518:	j	14526 <_ldtoa_r+0x976>
   1451a:	addi	a5,a5,2
   1451c:	addi	a3,sp,94
   14520:	addi	a4,a4,2
   14522:	beq	a5,a3,14430 <_ldtoa_r+0x880>
   14526:	lhu	a2,0(a5)
   1452a:	lhu	a3,0(a4)
   1452e:	beq	a2,a3,1451a <_ldtoa_r+0x96a>
   14532:	lhu	a5,226(sp)
   14536:	lw	a4,36(sp)
   14538:	and	a5,a5,a4
   1453a:	beq	a5,a4,14810 <_ldtoa_r+0xc60>
   1453e:	addi	a1,sp,236
   14540:	mv	a0,s7
   14542:	sw	t1,32(sp)
   14544:	jal	ra,12df0 <emovi>
   14548:	addi	a1,sp,264
   1454a:	mv	a0,s0
   1454c:	jal	ra,12df0 <emovi>
   14550:	lhu	a4,236(sp)
   14554:	lhu	a2,266(sp)
   14558:	lhu	t3,238(sp)
   1455c:	not	a4,a4
   14560:	slli	a4,a4,0x10
   14562:	srli	a4,a4,0x10
   14564:	sh	a4,236(sp)
   14568:	sub	a1,t3,a2
   1456c:	lw	t1,32(sp)
   1456e:	mv	a3,a2
   14570:	blez	a1,145cc <_ldtoa_r+0xa1c>
   14574:	mv	a1,s9
   14576:	addi	a3,sp,264
   14578:	addi	a5,sp,288
   1457a:	lhu	a0,0(a3)
   1457e:	addi	a3,a3,2
   14580:	addi	a1,a1,2
   14582:	sh	a0,-2(a1)
   14586:	bne	a3,a5,1457a <_ldtoa_r+0x9ca>
   1458a:	sh	zero,316(sp)
   1458e:	addi	a3,sp,264
   14590:	addi	a1,sp,236
   14592:	j	14598 <_ldtoa_r+0x9e8>
   14594:	lhu	a4,0(a1)
   14598:	addi	a3,a3,2
   1459a:	sh	a4,-2(a3)
   1459e:	addi	a1,a1,2
   145a0:	bne	a3,a5,14594 <_ldtoa_r+0x9e4>
   145a4:	sh	zero,288(sp)
   145a8:	addi	a4,sp,236
   145aa:	mv	a5,s9
   145ac:	addi	a0,sp,316
   145ae:	lhu	a3,0(a5)
   145b2:	addi	a5,a5,2
   145b4:	addi	a4,a4,2
   145b6:	sh	a3,-2(a4)
   145ba:	bne	a5,a0,145ae <_ldtoa_r+0x9fe>
   145be:	lhu	a3,266(sp)
   145c2:	sub	a1,a2,t3
   145c6:	sh	zero,260(sp)
   145ca:	mv	a2,a3
   145cc:	beqz	a1,1483a <_ldtoa_r+0xc8a>
   145d0:	sw	a3,44(sp)
   145d2:	li	a5,-145
   145d6:	blt	a1,a5,14634 <_ldtoa_r+0xa84>
   145da:	addi	a0,sp,236
   145dc:	sw	t1,32(sp)
   145de:	jal	ra,12ca8 <eshift.part.0>
   145e2:	lw	t1,32(sp)
   145e4:	lw	a3,44(sp)
   145e6:	mv	a1,a0
   145e8:	addi	a5,sp,288
   145ea:	addi	a4,sp,260
   145ec:	lhu	a0,236(sp)
   145f0:	lhu	a2,264(sp)
   145f4:	beq	a0,a2,148b8 <_ldtoa_r+0xd08>
   145f8:	li	t3,0
   145fa:	addi	a0,sp,266
   145fe:	lhu	a2,0(a5)
   14602:	lhu	t4,0(a4)
   14606:	addi	a5,a5,-2
   14608:	sub	a2,a2,t3
   1460c:	sub	a2,a2,t4
   14610:	srli	t3,a2,0x10
   14614:	sh	a2,2(a5)
   14618:	andi	t3,t3,1
   1461c:	addi	a4,a4,-2
   1461e:	bne	a5,a0,145fe <_ldtoa_r+0xa4e>
   14622:	li	a2,1
   14624:	mv	a5,s3
   14626:	li	a4,64
   1462a:	addi	a0,sp,264
   1462c:	sw	t1,32(sp)
   1462e:	jal	ra,12f5e <emdnorm>
   14632:	lw	t1,32(sp)
   14634:	mv	a1,s0
   14636:	addi	a0,sp,264
   14638:	sw	t1,32(sp)
   1463a:	jal	ra,12b10 <emovo.constprop.0>
   1463e:	lw	t1,32(sp)
   14640:	j	14430 <_ldtoa_r+0x880>
   14642:	lw	a5,20(sp)
   14644:	sb	zero,292(sp)
   14648:	mv	s0,s9
   1464a:	sw	zero,0(a5)
   1464e:	j	142c0 <_ldtoa_r+0x710>
   14650:	mv	a5,s0
   14652:	addi	a4,sp,228
   14654:	addi	a5,a5,2
   14656:	sh	zero,-2(a5)
   1465a:	bne	a5,a4,14654 <_ldtoa_r+0xaa4>
   1465e:	j	14428 <_ldtoa_r+0x878>
   14660:	lw	a5,0(sp)
   14662:	addi	s9,sp,292
   14666:	beqz	a5,14720 <_ldtoa_r+0xb70>
   14668:	lui	a1,0x1e
   1466a:	addi	a1,a1,-1328 # 1dad0 <zeroes.0+0x10>
   1466e:	mv	a0,s9
   14670:	lui	s1,0x2
   14672:	jal	ra,15e56 <sprintf>
   14676:	addi	s1,s1,1807 # 270f <register_fini-0xd965>
   1467a:	j	14128 <_ldtoa_r+0x578>
   1467c:	addi	s5,sp,232
   14680:	j	13df8 <_ldtoa_r+0x248>
   14684:	lbu	a5,-1(a3)
   14688:	li	a4,56
   1468c:	bgeu	a4,a5,14734 <_ldtoa_r+0xb84>
   14690:	li	a5,49
   14694:	addi	s1,s1,1
   14696:	sb	a5,-1(a3)
   1469a:	j	1411a <_ldtoa_r+0x56a>
   1469c:	addi	a4,a4,1
   1469e:	sb	a4,0(a3)
   146a2:	j	1411a <_ldtoa_r+0x56a>
   146a4:	addi	a4,sp,114
   146a8:	j	146ae <_ldtoa_r+0xafe>
   146aa:	beq	s2,a4,14142 <_ldtoa_r+0x592>
   146ae:	lhu	a5,0(s2)
   146b2:	addi	s2,s2,2
   146b4:	beqz	a5,146aa <_ldtoa_r+0xafa>
   146b6:	lw	a4,20(sp)
   146b8:	lui	a5,0x2
   146ba:	addi	a5,a5,1807 # 270f <register_fini-0xd965>
   146be:	sw	a5,0(a4)
   146c0:	j	1417e <_ldtoa_r+0x5ce>
   146c2:	addi	s9,sp,292
   146c6:	lui	a1,0x1e
   146c8:	addi	a1,a1,-1304 # 1dae8 <zeroes.0+0x28>
   146cc:	mv	a0,s9
   146ce:	lui	s1,0x2
   146d0:	jal	ra,15e56 <sprintf>
   146d4:	addi	s1,s1,1807 # 270f <register_fini-0xd965>
   146d8:	j	14128 <_ldtoa_r+0x578>
   146da:	addi	a1,sp,152
   146dc:	addi	a0,sp,124
   146de:	sw	a5,28(sp)
   146e0:	jal	ra,12b10 <emovo.constprop.0>
   146e4:	addi	a1,s6,-1168
   146e8:	addi	a0,sp,152
   146ea:	jal	ra,12e7e <ecmp>
   146ee:	lw	a5,28(sp)
   146f0:	bnez	a0,140da <_ldtoa_r+0x52a>
   146f4:	lw	a4,0(sp)
   146f6:	bltz	a4,1411a <_ldtoa_r+0x56a>
   146fa:	lbu	a4,-2(a5)
   146fe:	addi	a3,a4,-46
   14702:	seqz	a3,a3
   14706:	not	a3,a3
   1470a:	add	a3,a3,s8
   1470c:	lbu	a3,0(a3)
   14710:	andi	a3,a3,1
   14712:	beqz	a3,1411a <_ldtoa_r+0x56a>
   14716:	addi	a3,a5,-2
   1471a:	andi	a4,a4,127
   1471e:	j	140ec <_ldtoa_r+0x53c>
   14720:	lui	a1,0x1e
   14722:	addi	a1,a1,-1316 # 1dadc <zeroes.0+0x1c>
   14726:	mv	a0,s9
   14728:	lui	s1,0x2
   1472a:	jal	ra,15e56 <sprintf>
   1472e:	addi	s1,s1,1807 # 270f <register_fini-0xd965>
   14732:	j	14128 <_ldtoa_r+0x578>
   14734:	addi	a5,a5,1
   14736:	sb	a5,-1(a3)
   1473a:	j	1411a <_ldtoa_r+0x56a>
   1473c:	addi	s0,sp,208
   1473e:	mv	a1,s0
   14740:	addi	a0,sp,124
   14742:	jal	ra,12df0 <emovi>
   14746:	lui	a5,0x4
   14748:	li	s1,0
   1474a:	addi	s5,sp,232
   1474e:	addi	s3,sp,204
   14752:	addi	s9,sp,210
   14756:	addi	s10,a5,-2 # 3ffe <register_fini-0xc076>
   1475a:	lhu	a5,232(sp)
   1475e:	andi	a5,a5,7
   14760:	bnez	a5,14800 <_ldtoa_r+0xc50>
   14762:	addi	a4,sp,180
   14764:	mv	a5,s0
   14766:	lhu	a3,0(a5)
   1476a:	addi	a5,a5,2
   1476c:	addi	a4,a4,2
   1476e:	sh	a3,-2(a4)
   14772:	bne	a5,s5,14766 <_ldtoa_r+0xbb6>
   14776:	addi	a0,sp,180
   14778:	sh	zero,204(sp)
   1477c:	jal	ra,12a12 <eshdn1>
   14780:	addi	a0,sp,180
   14782:	jal	ra,12a12 <eshdn1>
   14786:	li	a2,0
   14788:	mv	a3,s3
   1478a:	mv	a4,s5
   1478c:	lhu	a1,0(a3)
   14790:	lhu	a5,0(a4)
   14794:	addi	a3,a3,-2
   14796:	addi	a4,a4,-2
   14798:	add	a5,a5,a1
   1479a:	add	a5,a5,a2
   1479c:	srli	a2,a5,0x10
   147a0:	sh	a5,2(a3)
   147a4:	andi	a2,a2,1
   147a6:	bne	a4,s9,1478c <_ldtoa_r+0xbdc>
   147aa:	lhu	a5,182(sp)
   147ae:	lhu	a4,184(sp)
   147b2:	addi	a5,a5,3
   147b4:	sh	a5,182(sp)
   147b8:	beqz	a4,147d0 <_ldtoa_r+0xc20>
   147ba:	addi	a0,sp,180
   147bc:	jal	ra,12a12 <eshdn1>
   147c0:	lhu	a5,182(sp)
   147c4:	lhu	a4,184(sp)
   147c8:	addi	a5,a5,1
   147ca:	sh	a5,182(sp)
   147ce:	bnez	a4,147ba <_ldtoa_r+0xc0a>
   147d0:	lhu	a5,204(sp)
   147d4:	bnez	a5,14800 <_ldtoa_r+0xc50>
   147d6:	lhu	a5,182(sp)
   147da:	bltu	s10,a5,14800 <_ldtoa_r+0xc50>
   147de:	mv	a4,s0
   147e0:	addi	a5,sp,180
   147e2:	lhu	a3,0(a5)
   147e6:	addi	a5,a5,2
   147e8:	addi	a4,a4,2
   147ea:	sh	a3,-2(a4)
   147ee:	bne	a5,s3,147e2 <_ldtoa_r+0xc32>
   147f2:	sh	zero,232(sp)
   147f6:	addi	s1,s1,-1
   147f8:	li	a5,-43
   147fc:	bne	s1,a5,1475a <_ldtoa_r+0xbaa>
   14800:	addi	a1,sp,124
   14802:	mv	a0,s0
   14804:	jal	ra,12b10 <emovo.constprop.0>
   14808:	addi	s3,sp,352
   1480c:	j	13d46 <_ldtoa_r+0x196>
   14810:	mv	a5,s0
   14812:	lhu	a4,0(a5)
   14816:	addi	a5,a5,2
   14818:	bnez	a4,14430 <_ldtoa_r+0x880>
   1481c:	addi	a4,sp,226
   14820:	bne	a5,a4,14812 <_ldtoa_r+0xc62>
   14824:	mv	a5,s0
   14826:	lhu	a4,0(a5)
   1482a:	addi	a5,a5,2
   1482c:	bnez	a4,1453e <_ldtoa_r+0x98e>
   14830:	addi	a4,sp,226
   14834:	bne	a5,a4,14826 <_ldtoa_r+0xc76>
   14838:	j	14430 <_ldtoa_r+0x880>
   1483a:	addi	a4,sp,268
   1483c:	addi	a5,sp,240
   1483e:	lhu	t3,0(a5)
   14842:	lhu	a0,0(a4)
   14846:	addi	a5,a5,2
   14848:	addi	a4,a4,2
   1484a:	bne	t3,a0,1488a <_ldtoa_r+0xcda>
   1484e:	addi	a0,sp,262
   14852:	bne	a5,a0,1483e <_ldtoa_r+0xc8e>
   14856:	lhu	a4,236(sp)
   1485a:	lhu	a5,264(sp)
   1485e:	beq	a4,a5,14894 <_ldtoa_r+0xce4>
   14862:	mv	a5,s0
   14864:	addi	a4,sp,228
   14866:	addi	a5,a5,2
   14868:	sh	zero,-2(a5)
   1486c:	bne	a5,a4,14866 <_ldtoa_r+0xcb6>
   14870:	j	14430 <_ldtoa_r+0x880>
   14872:	lui	a3,0x1e
   14874:	lui	a1,0x1
   14876:	lui	a0,0x1e
   14878:	addi	a3,a3,-1296 # 1daf0 <zeroes.0+0x30>
   1487c:	li	a2,0
   1487e:	addi	a1,a1,-1170 # b6e <register_fini-0xf506>
   14882:	addi	a0,a0,-1276 # 1db04 <zeroes.0+0x44>
   14886:	jal	ra,18bfe <__assert_func>
   1488a:	bltu	a0,t3,148e0 <_ldtoa_r+0xd30>
   1488e:	addi	a5,sp,288
   14890:	addi	a4,sp,260
   14892:	j	145ec <_ldtoa_r+0xa3c>
   14894:	mv	a4,a3
   14896:	bnez	a3,148a0 <_ldtoa_r+0xcf0>
   14898:	lh	a5,270(sp)
   1489c:	bgez	a5,14932 <_ldtoa_r+0xd82>
   148a0:	addi	a4,sp,266
   148a4:	addi	a5,sp,288
   148a6:	lhu	a1,0(a4)
   148aa:	bnez	a1,1496c <_ldtoa_r+0xdbc>
   148ac:	addi	a4,a4,2
   148ae:	bne	a5,a4,148a6 <_ldtoa_r+0xcf6>
   148b2:	sh	a2,266(sp)
   148b6:	j	14634 <_ldtoa_r+0xa84>
   148b8:	li	a0,0
   148ba:	addi	t3,sp,238
   148be:	lhu	t4,0(a5)
   148c2:	lhu	a2,0(a4)
   148c6:	addi	a5,a5,-2
   148c8:	addi	a4,a4,-2
   148ca:	add	a2,a2,t4
   148cc:	add	a2,a2,a0
   148ce:	srli	a0,a2,0x10
   148d2:	sh	a2,2(a5)
   148d6:	andi	a0,a0,1
   148d8:	bne	a4,t3,148be <_ldtoa_r+0xd0e>
   148dc:	li	a2,0
   148de:	j	14624 <_ldtoa_r+0xa74>
   148e0:	mv	a2,s9
   148e2:	addi	a4,sp,264
   148e4:	addi	a5,sp,288
   148e6:	lhu	a0,0(a4)
   148ea:	addi	a4,a4,2
   148ec:	addi	a2,a2,2
   148ee:	sh	a0,-2(a2)
   148f2:	bne	a4,a5,148e6 <_ldtoa_r+0xd36>
   148f6:	sh	zero,316(sp)
   148fa:	addi	a0,sp,264
   148fc:	addi	a2,sp,236
   148fe:	addi	a4,sp,260
   14900:	lhu	t3,0(a2)
   14904:	addi	a2,a2,2
   14906:	addi	a0,a0,2
   14908:	sh	t3,-2(a0)
   1490c:	bne	a2,a4,14900 <_ldtoa_r+0xd50>
   14910:	sh	zero,288(sp)
   14914:	addi	t3,sp,236
   14918:	mv	a2,s9
   1491a:	addi	a0,sp,316
   1491c:	lhu	t4,0(a2)
   14920:	addi	a2,a2,2
   14922:	addi	t3,t3,2
   14924:	sh	t4,-2(t3) # fffe <register_fini-0x76>
   14928:	bne	a2,a0,1491c <_ldtoa_r+0xd6c>
   1492c:	sh	zero,260(sp)
   14930:	j	145ec <_ldtoa_r+0xa3c>
   14932:	addi	a3,sp,288
   14934:	addi	a0,sp,266
   14938:	lhu	a5,0(a3)
   1493c:	slli	a2,a5,0x10
   14940:	srai	a2,a2,0x10
   14942:	bgez	a2,1494a <_ldtoa_r+0xd9a>
   14946:	ori	a4,a4,1
   1494a:	slli	a5,a5,0x1
   1494c:	slli	a5,a5,0x10
   1494e:	andi	a2,a4,2
   14952:	srli	a5,a5,0x10
   14954:	beqz	a2,1495a <_ldtoa_r+0xdaa>
   14956:	ori	a5,a5,1
   1495a:	slli	a4,a4,0x1
   1495c:	sh	a5,0(a3)
   14960:	slli	a4,a4,0x10
   14962:	addi	a3,a3,-2
   14964:	srli	a4,a4,0x10
   14966:	bne	a3,a0,14938 <_ldtoa_r+0xd88>
   1496a:	j	14634 <_ldtoa_r+0xa84>
   1496c:	addi	a2,a3,1
   14970:	sh	a2,266(sp)
   14974:	j	14634 <_ldtoa_r+0xa84>

00014976 <_ldcheck>:
   14976:	lw	a4,8(a0)
   14978:	lw	a5,12(a0)
   1497a:	lw	a2,0(a0)
   1497c:	lw	a3,4(a0)
   1497e:	addi	sp,sp,-64
   14980:	mv	a0,sp
   14982:	addi	a1,sp,20
   14984:	sw	a4,8(sp)
   14986:	sw	a5,12(sp)
   14988:	sw	ra,60(sp)
   1498a:	sw	a2,0(sp)
   1498c:	sw	a3,4(sp)
   1498e:	jal	ra,13338 <e113toe.isra.0>
   14992:	lhu	a5,38(sp)
   14996:	li	a0,0
   14998:	not	a5,a5
   1499c:	slli	a4,a5,0x11
   149a0:	bnez	a4,149b6 <_ldcheck+0x40>
   149a2:	addi	a5,sp,20
   149a4:	addi	a3,sp,38
   149a8:	lhu	a4,0(a5)
   149ac:	addi	a5,a5,2
   149ae:	bnez	a4,149bc <_ldcheck+0x46>
   149b0:	bne	a5,a3,149a8 <_ldcheck+0x32>
   149b4:	li	a0,2
   149b6:	lw	ra,60(sp)
   149b8:	addi	sp,sp,64
   149ba:	ret
   149bc:	li	a0,1
   149be:	j	149b6 <_ldcheck+0x40>

000149c0 <__localeconv_l>:
   149c0:	addi	a0,a0,240
   149c4:	ret

000149c6 <_localeconv_r>:
   149c6:	addi	a0,gp,288 # 1f930 <__global_locale+0xf0>
   149ca:	ret

000149cc <localeconv>:
   149cc:	addi	a0,gp,288 # 1f930 <__global_locale+0xf0>
   149d0:	ret

000149d2 <__smakebuf_r>:
   149d2:	lhu	a5,12(a1)
   149d6:	addi	sp,sp,-128
   149d8:	sw	s0,120(sp)
   149da:	sw	ra,124(sp)
   149dc:	sw	s1,116(sp)
   149de:	sw	s2,112(sp)
   149e0:	sw	s3,108(sp)
   149e2:	sw	s4,104(sp)
   149e4:	andi	a4,a5,2
   149e8:	mv	s0,a1
   149ea:	beqz	a4,14a08 <__smakebuf_r+0x36>
   149ec:	addi	a5,a1,67
   149f0:	sw	a5,0(a1)
   149f2:	sw	a5,16(a1)
   149f4:	li	a5,1
   149f6:	sw	a5,20(a1)
   149f8:	lw	ra,124(sp)
   149fa:	lw	s0,120(sp)
   149fc:	lw	s1,116(sp)
   149fe:	lw	s2,112(sp)
   14a00:	lw	s3,108(sp)
   14a02:	lw	s4,104(sp)
   14a04:	addi	sp,sp,128
   14a06:	ret
   14a08:	lh	a1,14(a1)
   14a0c:	mv	s1,a0
   14a0e:	bltz	a1,14a7a <__smakebuf_r+0xa8>
   14a12:	addi	a2,sp,8
   14a14:	jal	ra,18f50 <_fstat_r>
   14a18:	bltz	a0,14a76 <__smakebuf_r+0xa4>
   14a1c:	lw	a5,12(sp)
   14a1e:	lui	s2,0xf
   14a20:	lui	s3,0x1
   14a22:	and	s2,s2,a5
   14a26:	lui	a5,0xffffe
   14a28:	add	s2,s2,a5
   14a2a:	seqz	s2,s2
   14a2e:	li	s4,1024
   14a32:	addi	s3,s3,-2048 # 800 <register_fini-0xf874>
   14a36:	mv	a1,s4
   14a38:	mv	a0,s1
   14a3a:	jal	14b66 <_malloc_r>
   14a3c:	lh	a5,12(s0)
   14a40:	beqz	a0,14a94 <__smakebuf_r+0xc2>
   14a42:	lui	a4,0x12
   14a44:	addi	a4,a4,890 # 1237a <_cleanup_r>
   14a48:	sw	a4,60(s1)
   14a4a:	ori	a5,a5,128
   14a4e:	sh	a5,12(s0)
   14a52:	sw	a0,0(s0)
   14a54:	sw	a0,16(s0)
   14a56:	sw	s4,20(s0)
   14a5a:	bnez	s2,14aba <__smakebuf_r+0xe8>
   14a5e:	or	a5,a5,s3
   14a62:	lw	ra,124(sp)
   14a64:	sh	a5,12(s0)
   14a68:	lw	s0,120(sp)
   14a6a:	lw	s1,116(sp)
   14a6c:	lw	s2,112(sp)
   14a6e:	lw	s3,108(sp)
   14a70:	lw	s4,104(sp)
   14a72:	addi	sp,sp,128
   14a74:	ret
   14a76:	lhu	a5,12(s0)
   14a7a:	andi	a5,a5,128
   14a7e:	li	s2,0
   14a80:	beqz	a5,14ab2 <__smakebuf_r+0xe0>
   14a82:	li	s4,64
   14a86:	mv	a1,s4
   14a88:	mv	a0,s1
   14a8a:	jal	14b66 <_malloc_r>
   14a8c:	lh	a5,12(s0)
   14a90:	li	s3,0
   14a92:	bnez	a0,14a42 <__smakebuf_r+0x70>
   14a94:	andi	a4,a5,512
   14a98:	bnez	a4,149f8 <__smakebuf_r+0x26>
   14a9a:	andi	a5,a5,-4
   14a9c:	ori	a5,a5,2
   14aa0:	addi	a4,s0,67
   14aa4:	sh	a5,12(s0)
   14aa8:	li	a5,1
   14aaa:	sw	a4,0(s0)
   14aac:	sw	a4,16(s0)
   14aae:	sw	a5,20(s0)
   14ab0:	j	149f8 <__smakebuf_r+0x26>
   14ab2:	li	s4,1024
   14ab6:	li	s3,0
   14ab8:	j	14a36 <__smakebuf_r+0x64>
   14aba:	lh	a1,14(s0)
   14abe:	mv	a0,s1
   14ac0:	jal	ra,192ac <_isatty_r>
   14ac4:	bnez	a0,14acc <__smakebuf_r+0xfa>
   14ac6:	lh	a5,12(s0)
   14aca:	j	14a5e <__smakebuf_r+0x8c>
   14acc:	lhu	a5,12(s0)
   14ad0:	andi	a5,a5,-4
   14ad2:	ori	a5,a5,1
   14ad6:	slli	a5,a5,0x10
   14ad8:	srai	a5,a5,0x10
   14ada:	j	14a5e <__smakebuf_r+0x8c>

00014adc <__swhatbuf_r>:
   14adc:	addi	sp,sp,-112
   14ade:	sw	s0,104(sp)
   14ae0:	mv	s0,a1
   14ae2:	lh	a1,14(a1)
   14ae6:	sw	s1,100(sp)
   14ae8:	sw	s2,96(sp)
   14aea:	sw	ra,108(sp)
   14aec:	mv	s1,a2
   14aee:	mv	s2,a3
   14af0:	bltz	a1,14b28 <__swhatbuf_r+0x4c>
   14af4:	addi	a2,sp,8
   14af6:	jal	ra,18f50 <_fstat_r>
   14afa:	bltz	a0,14b28 <__swhatbuf_r+0x4c>
   14afe:	lw	a4,12(sp)
   14b00:	lui	a5,0xf
   14b02:	lw	ra,108(sp)
   14b04:	and	a5,a5,a4
   14b06:	lui	a4,0xffffe
   14b08:	add	a5,a5,a4
   14b0a:	lw	s0,104(sp)
   14b0c:	seqz	a5,a5
   14b10:	sw	a5,0(s2) # f000 <register_fini-0x1074>
   14b14:	li	a4,1024
   14b18:	sw	a4,0(s1)
   14b1a:	lui	a0,0x1
   14b1c:	lw	s1,100(sp)
   14b1e:	lw	s2,96(sp)
   14b20:	addi	a0,a0,-2048 # 800 <register_fini-0xf874>
   14b24:	addi	sp,sp,112
   14b26:	ret
   14b28:	lhu	a5,12(s0)
   14b2c:	andi	a5,a5,128
   14b30:	beqz	a5,14b4c <__swhatbuf_r+0x70>
   14b32:	lw	ra,108(sp)
   14b34:	lw	s0,104(sp)
   14b36:	li	a5,0
   14b38:	sw	a5,0(s2)
   14b3c:	li	a4,64
   14b40:	sw	a4,0(s1)
   14b42:	lw	s2,96(sp)
   14b44:	lw	s1,100(sp)
   14b46:	li	a0,0
   14b48:	addi	sp,sp,112
   14b4a:	ret
   14b4c:	lw	ra,108(sp)
   14b4e:	lw	s0,104(sp)
   14b50:	li	a5,0
   14b52:	sw	a5,0(s2)
   14b56:	li	a4,1024
   14b5a:	sw	a4,0(s1)
   14b5c:	lw	s2,96(sp)
   14b5e:	lw	s1,100(sp)
   14b60:	li	a0,0
   14b62:	addi	sp,sp,112
   14b64:	ret

00014b66 <_malloc_r>:
   14b66:	addi	sp,sp,-48
   14b68:	sw	s3,28(sp)
   14b6a:	sw	ra,44(sp)
   14b6c:	sw	s0,40(sp)
   14b6e:	sw	s1,36(sp)
   14b70:	sw	s2,32(sp)
   14b72:	sw	s4,24(sp)
   14b74:	sw	s5,20(sp)
   14b76:	sw	s6,16(sp)
   14b78:	sw	s7,12(sp)
   14b7a:	sw	s8,8(sp)
   14b7c:	sw	s9,4(sp)
   14b7e:	addi	a5,a1,11
   14b82:	li	a4,22
   14b84:	mv	s3,a0
   14b86:	bltu	a4,a5,14bc8 <_malloc_r+0x62>
   14b8a:	li	a5,16
   14b8c:	bltu	a5,a1,14ce6 <_malloc_r+0x180>
   14b90:	jal	1519e <__malloc_lock>
   14b92:	li	s1,16
   14b94:	li	a5,24
   14b96:	li	a2,2
   14b98:	addi	s2,gp,-984 # 1f438 <__malloc_av_>
   14b9c:	add	a5,a5,s2
   14b9e:	lw	s0,4(a5)
   14ba0:	addi	a4,a5,-8 # eff8 <register_fini-0x107c>
   14ba4:	beq	s0,a4,14d16 <_malloc_r+0x1b0>
   14ba8:	lw	a5,4(s0)
   14baa:	lw	a3,12(s0)
   14bac:	lw	a2,8(s0)
   14bae:	andi	a5,a5,-4
   14bb0:	add	a5,a5,s0
   14bb2:	lw	a4,4(a5)
   14bb4:	sw	a3,12(a2)
   14bb6:	sw	a2,8(a3)
   14bb8:	ori	a4,a4,1
   14bbc:	mv	a0,s3
   14bbe:	sw	a4,4(a5)
   14bc0:	jal	151a0 <__malloc_unlock>
   14bc2:	addi	a0,s0,8
   14bc6:	j	14cee <_malloc_r+0x188>
   14bc8:	andi	s1,a5,-8
   14bcc:	bltz	a5,14ce6 <_malloc_r+0x180>
   14bd0:	bltu	s1,a1,14ce6 <_malloc_r+0x180>
   14bd4:	jal	1519e <__malloc_lock>
   14bd6:	li	a5,503
   14bda:	bgeu	a5,s1,14f0e <_malloc_r+0x3a8>
   14bde:	srli	a5,s1,0x9
   14be2:	beqz	a5,14d08 <_malloc_r+0x1a2>
   14be6:	li	a4,4
   14be8:	bltu	a4,a5,14eae <_malloc_r+0x348>
   14bec:	srli	a5,s1,0x6
   14bf0:	addi	a2,a5,57
   14bf4:	addi	a0,a5,56
   14bf8:	slli	a3,a2,0x3
   14bfc:	addi	s2,gp,-984 # 1f438 <__malloc_av_>
   14c00:	add	a3,a3,s2
   14c02:	lw	s0,4(a3)
   14c04:	addi	a3,a3,-8
   14c06:	beq	a3,s0,14c26 <_malloc_r+0xc0>
   14c0a:	li	a1,15
   14c0c:	j	14c18 <_malloc_r+0xb2>
   14c0e:	bgez	a4,14e66 <_malloc_r+0x300>
   14c12:	lw	s0,12(s0)
   14c14:	beq	a3,s0,14c26 <_malloc_r+0xc0>
   14c18:	lw	a5,4(s0)
   14c1a:	andi	a5,a5,-4
   14c1c:	sub	a4,a5,s1
   14c20:	bge	a1,a4,14c0e <_malloc_r+0xa8>
   14c24:	mv	a2,a0
   14c26:	lw	s0,16(s2)
   14c2a:	addi	a7,s2,8
   14c2e:	beq	s0,a7,14d2a <_malloc_r+0x1c4>
   14c32:	lw	a1,4(s0)
   14c34:	li	a4,15
   14c36:	andi	a1,a1,-4
   14c38:	sub	a5,a1,s1
   14c3c:	blt	a4,a5,14f2c <_malloc_r+0x3c6>
   14c40:	sw	a7,20(s2)
   14c44:	sw	a7,16(s2)
   14c48:	bgez	a5,14f18 <_malloc_r+0x3b2>
   14c4c:	li	a5,511
   14c50:	bltu	a5,a1,14e6c <_malloc_r+0x306>
   14c54:	andi	a5,a1,-8
   14c58:	addi	a5,a5,8
   14c5a:	lw	a0,4(s2)
   14c5e:	add	a5,a5,s2
   14c60:	lw	a3,0(a5)
   14c62:	srli	a1,a1,0x5
   14c64:	li	a4,1
   14c66:	sll	a4,a4,a1
   14c6a:	or	a4,a4,a0
   14c6c:	addi	a1,a5,-8
   14c70:	sw	a1,12(s0)
   14c72:	sw	a3,8(s0)
   14c74:	sw	a4,4(s2)
   14c78:	sw	s0,0(a5)
   14c7a:	sw	s0,12(a3)
   14c7c:	srai	a5,a2,0x2
   14c80:	li	a1,1
   14c82:	sll	a1,a1,a5
   14c86:	bltu	a4,a1,14d3c <_malloc_r+0x1d6>
   14c8a:	and	a5,a1,a4
   14c8e:	bnez	a5,14ca6 <_malloc_r+0x140>
   14c90:	slli	a1,a1,0x1
   14c92:	andi	a2,a2,-4
   14c94:	and	a5,a1,a4
   14c98:	addi	a2,a2,4
   14c9a:	bnez	a5,14ca6 <_malloc_r+0x140>
   14c9c:	slli	a1,a1,0x1
   14c9e:	and	a5,a1,a4
   14ca2:	addi	a2,a2,4
   14ca4:	beqz	a5,14c9c <_malloc_r+0x136>
   14ca6:	li	a6,15
   14ca8:	slli	t1,a2,0x3
   14cac:	add	t1,t1,s2
   14cae:	mv	a0,t1
   14cb0:	lw	a5,12(a0)
   14cb2:	mv	t3,a2
   14cb4:	beq	a0,a5,14ece <_malloc_r+0x368>
   14cb8:	lw	a4,4(a5)
   14cba:	mv	s0,a5
   14cbc:	lw	a5,12(a5)
   14cbe:	andi	a4,a4,-4
   14cc0:	sub	a3,a4,s1
   14cc4:	blt	a6,a3,14edc <_malloc_r+0x376>
   14cc8:	bltz	a3,14cb4 <_malloc_r+0x14e>
   14ccc:	add	a4,a4,s0
   14cce:	lw	a3,4(a4)
   14cd0:	lw	a2,8(s0)
   14cd2:	mv	a0,s3
   14cd4:	ori	a3,a3,1
   14cd8:	sw	a3,4(a4)
   14cda:	sw	a5,12(a2)
   14cdc:	sw	a2,8(a5)
   14cde:	jal	151a0 <__malloc_unlock>
   14ce0:	addi	a0,s0,8
   14ce4:	j	14cee <_malloc_r+0x188>
   14ce6:	li	a5,12
   14ce8:	sw	a5,0(s3)
   14cec:	li	a0,0
   14cee:	lw	ra,44(sp)
   14cf0:	lw	s0,40(sp)
   14cf2:	lw	s1,36(sp)
   14cf4:	lw	s2,32(sp)
   14cf6:	lw	s3,28(sp)
   14cf8:	lw	s4,24(sp)
   14cfa:	lw	s5,20(sp)
   14cfc:	lw	s6,16(sp)
   14cfe:	lw	s7,12(sp)
   14d00:	lw	s8,8(sp)
   14d02:	lw	s9,4(sp)
   14d04:	addi	sp,sp,48
   14d06:	ret
   14d08:	li	a3,512
   14d0c:	li	a2,64
   14d10:	li	a0,63
   14d14:	j	14bfc <_malloc_r+0x96>
   14d16:	lw	s0,12(a5)
   14d18:	addi	a2,a2,2
   14d1a:	bne	a5,s0,14ba8 <_malloc_r+0x42>
   14d1e:	lw	s0,16(s2)
   14d22:	addi	a7,s2,8
   14d26:	bne	s0,a7,14c32 <_malloc_r+0xcc>
   14d2a:	lw	a4,4(s2)
   14d2e:	srai	a5,a2,0x2
   14d32:	li	a1,1
   14d34:	sll	a1,a1,a5
   14d38:	bgeu	a4,a1,14c8a <_malloc_r+0x124>
   14d3c:	lw	s0,8(s2)
   14d40:	lw	s6,4(s0)
   14d44:	andi	s6,s6,-4
   14d48:	bltu	s6,s1,14d56 <_malloc_r+0x1f0>
   14d4c:	sub	a5,s6,s1
   14d50:	li	a4,15
   14d52:	blt	a4,a5,14e4a <_malloc_r+0x2e4>
   14d56:	lw	s5,468(gp) # 1f9e4 <__malloc_top_pad>
   14d5a:	lw	a4,452(gp) # 1f9d4 <__malloc_sbrk_base>
   14d5e:	li	a5,-1
   14d60:	add	s4,s0,s6
   14d64:	add	s5,s5,s1
   14d66:	beq	a4,a5,14fda <_malloc_r+0x474>
   14d6a:	lui	a5,0x1
   14d6c:	addi	a5,a5,15
   14d6e:	add	s5,s5,a5
   14d70:	lui	a5,0xfffff
   14d72:	and	s5,s5,a5
   14d76:	mv	a1,s5
   14d78:	mv	a0,s3
   14d7a:	jal	ra,15de0 <_sbrk_r>
   14d7e:	li	a5,-1
   14d80:	mv	s7,a0
   14d82:	beq	a0,a5,14f6c <_malloc_r+0x406>
   14d86:	bltu	a0,s4,14f68 <_malloc_r+0x402>
   14d8a:	addi	s8,gp,512 # 1fa10 <__malloc_current_mallinfo>
   14d8e:	lw	a1,0(s8)
   14d92:	add	a1,a1,s5
   14d94:	sw	a1,0(s8)
   14d98:	mv	a5,a1
   14d9a:	beq	s4,a0,15056 <_malloc_r+0x4f0>
   14d9e:	lw	a3,452(gp) # 1f9d4 <__malloc_sbrk_base>
   14da2:	li	a4,-1
   14da4:	beq	a3,a4,1506e <_malloc_r+0x508>
   14da8:	sub	s4,s7,s4
   14dac:	add	a5,a5,s4
   14dae:	sw	a5,0(s8)
   14db2:	andi	s9,s7,7
   14db6:	beqz	s9,14ff4 <_malloc_r+0x48e>
   14dba:	lui	a5,0x1
   14dbc:	sub	s7,s7,s9
   14dc0:	addi	a1,a5,8 # 1008 <register_fini-0xf06c>
   14dc4:	addi	s7,s7,8
   14dc6:	sub	a1,a1,s9
   14dca:	add	s5,s5,s7
   14dcc:	addi	a5,a5,-1
   14dce:	sub	a1,a1,s5
   14dd2:	and	s4,a1,a5
   14dd6:	mv	a1,s4
   14dd8:	mv	a0,s3
   14dda:	jal	ra,15de0 <_sbrk_r>
   14dde:	li	a5,-1
   14de0:	beq	a0,a5,150b2 <_malloc_r+0x54c>
   14de4:	sub	a0,a0,s7
   14de8:	add	s5,a0,s4
   14dec:	lw	a5,0(s8)
   14df0:	sw	s7,8(s2)
   14df4:	ori	s5,s5,1
   14df8:	add	a1,s4,a5
   14dfc:	sw	a1,0(s8)
   14e00:	sw	s5,4(s7)
   14e04:	beq	s0,s2,15074 <_malloc_r+0x50e>
   14e08:	li	a3,15
   14e0a:	bgeu	a3,s6,15078 <_malloc_r+0x512>
   14e0e:	lw	a4,4(s0)
   14e10:	addi	a5,s6,-12
   14e14:	andi	a5,a5,-8
   14e16:	andi	a4,a4,1
   14e18:	or	a4,a4,a5
   14e1a:	sw	a4,4(s0)
   14e1c:	li	a2,5
   14e1e:	add	a4,s0,a5
   14e22:	sw	a2,4(a4)
   14e24:	sw	a2,8(a4)
   14e26:	bltu	a3,a5,150be <_malloc_r+0x558>
   14e2a:	lw	s5,4(s7)
   14e2e:	mv	s0,s7
   14e30:	lw	a4,464(gp) # 1f9e0 <__malloc_max_sbrked_mem>
   14e34:	bgeu	a4,a1,14e3c <_malloc_r+0x2d6>
   14e38:	sw	a1,464(gp) # 1f9e0 <__malloc_max_sbrked_mem>
   14e3c:	lw	a4,460(gp) # 1f9dc <__malloc_max_total_mem>
   14e40:	bgeu	a4,a1,14f74 <_malloc_r+0x40e>
   14e44:	sw	a1,460(gp) # 1f9dc <__malloc_max_total_mem>
   14e48:	j	14f74 <_malloc_r+0x40e>
   14e4a:	ori	a4,s1,1
   14e4e:	sw	a4,4(s0)
   14e50:	add	s1,s1,s0
   14e52:	sw	s1,8(s2)
   14e56:	ori	a5,a5,1
   14e5a:	mv	a0,s3
   14e5c:	sw	a5,4(s1)
   14e5e:	jal	151a0 <__malloc_unlock>
   14e60:	addi	a0,s0,8
   14e64:	j	14cee <_malloc_r+0x188>
   14e66:	lw	a3,12(s0)
   14e68:	lw	a2,8(s0)
   14e6a:	j	14bb0 <_malloc_r+0x4a>
   14e6c:	srli	a5,a1,0x9
   14e70:	li	a4,4
   14e72:	bgeu	a4,a5,14f58 <_malloc_r+0x3f2>
   14e76:	li	a4,20
   14e78:	bltu	a4,a5,15014 <_malloc_r+0x4ae>
   14e7c:	addi	a3,a5,92
   14e80:	addi	a4,a5,91
   14e84:	slli	a3,a3,0x3
   14e86:	add	a3,a3,s2
   14e88:	lw	a5,0(a3)
   14e8a:	addi	a3,a3,-8
   14e8c:	beq	a3,a5,14fde <_malloc_r+0x478>
   14e90:	lw	a4,4(a5)
   14e92:	andi	a4,a4,-4
   14e94:	bgeu	a1,a4,14e9e <_malloc_r+0x338>
   14e98:	lw	a5,8(a5)
   14e9a:	bne	a3,a5,14e90 <_malloc_r+0x32a>
   14e9e:	lw	a3,12(a5)
   14ea0:	lw	a4,4(s2)
   14ea4:	sw	a3,12(s0)
   14ea6:	sw	a5,8(s0)
   14ea8:	sw	s0,8(a3)
   14eaa:	sw	s0,12(a5)
   14eac:	j	14c7c <_malloc_r+0x116>
   14eae:	li	a4,20
   14eb0:	bgeu	a4,a5,14f8e <_malloc_r+0x428>
   14eb4:	li	a4,84
   14eb8:	bltu	a4,a5,1502c <_malloc_r+0x4c6>
   14ebc:	srli	a5,s1,0xc
   14ec0:	addi	a2,a5,111
   14ec4:	addi	a0,a5,110
   14ec8:	slli	a3,a2,0x3
   14ecc:	j	14bfc <_malloc_r+0x96>
   14ece:	addi	t3,t3,1
   14ed0:	andi	a5,t3,3
   14ed4:	addi	a0,a0,8
   14ed6:	beqz	a5,14fa6 <_malloc_r+0x440>
   14ed8:	lw	a5,12(a0)
   14eda:	j	14cb4 <_malloc_r+0x14e>
   14edc:	lw	a2,8(s0)
   14ede:	ori	a1,s1,1
   14ee2:	sw	a1,4(s0)
   14ee4:	sw	a5,12(a2)
   14ee6:	sw	a2,8(a5)
   14ee8:	add	s1,s1,s0
   14eea:	sw	s1,20(s2)
   14eee:	sw	s1,16(s2)
   14ef2:	ori	a5,a3,1
   14ef6:	sw	a7,12(s1)
   14efa:	sw	a7,8(s1)
   14efe:	sw	a5,4(s1)
   14f00:	add	a4,a4,s0
   14f02:	mv	a0,s3
   14f04:	sw	a3,0(a4)
   14f06:	jal	151a0 <__malloc_unlock>
   14f08:	addi	a0,s0,8
   14f0c:	j	14cee <_malloc_r+0x188>
   14f0e:	srli	a2,s1,0x3
   14f12:	addi	a5,s1,8
   14f16:	j	14b98 <_malloc_r+0x32>
   14f18:	add	a1,a1,s0
   14f1a:	lw	a5,4(a1)
   14f1c:	mv	a0,s3
   14f1e:	ori	a5,a5,1
   14f22:	sw	a5,4(a1)
   14f24:	jal	151a0 <__malloc_unlock>
   14f26:	addi	a0,s0,8
   14f2a:	j	14cee <_malloc_r+0x188>
   14f2c:	ori	a4,s1,1
   14f30:	sw	a4,4(s0)
   14f32:	add	s1,s1,s0
   14f34:	sw	s1,20(s2)
   14f38:	sw	s1,16(s2)
   14f3c:	ori	a4,a5,1
   14f40:	sw	a7,12(s1)
   14f44:	sw	a7,8(s1)
   14f48:	sw	a4,4(s1)
   14f4a:	add	a1,a1,s0
   14f4c:	mv	a0,s3
   14f4e:	sw	a5,0(a1)
   14f50:	jal	151a0 <__malloc_unlock>
   14f52:	addi	a0,s0,8
   14f56:	j	14cee <_malloc_r+0x188>
   14f58:	srli	a5,a1,0x6
   14f5c:	addi	a3,a5,57
   14f60:	addi	a4,a5,56
   14f64:	slli	a3,a3,0x3
   14f66:	j	14e86 <_malloc_r+0x320>
   14f68:	beq	s0,s2,15046 <_malloc_r+0x4e0>
   14f6c:	lw	s0,8(s2)
   14f70:	lw	s5,4(s0)
   14f74:	andi	s5,s5,-4
   14f78:	sub	a5,s5,s1
   14f7c:	bltu	s5,s1,14f86 <_malloc_r+0x420>
   14f80:	li	a4,15
   14f82:	blt	a4,a5,14e4a <_malloc_r+0x2e4>
   14f86:	mv	a0,s3
   14f88:	jal	151a0 <__malloc_unlock>
   14f8a:	li	a0,0
   14f8c:	j	14cee <_malloc_r+0x188>
   14f8e:	addi	a2,a5,92
   14f92:	addi	a0,a5,91
   14f96:	slli	a3,a2,0x3
   14f9a:	j	14bfc <_malloc_r+0x96>
   14f9c:	lw	a5,8(t1)
   14fa0:	addi	a2,a2,-1
   14fa2:	bne	a5,t1,15106 <_malloc_r+0x5a0>
   14fa6:	andi	a5,a2,3
   14faa:	addi	t1,t1,-8
   14fac:	bnez	a5,14f9c <_malloc_r+0x436>
   14fae:	lw	a4,4(s2)
   14fb2:	not	a5,a1
   14fb6:	and	a5,a5,a4
   14fb8:	sw	a5,4(s2)
   14fbc:	slli	a1,a1,0x1
   14fbe:	bltu	a5,a1,14d3c <_malloc_r+0x1d6>
   14fc2:	beqz	a1,14d3c <_malloc_r+0x1d6>
   14fc6:	and	a4,a1,a5
   14fca:	bnez	a4,14fd6 <_malloc_r+0x470>
   14fcc:	slli	a1,a1,0x1
   14fce:	and	a4,a1,a5
   14fd2:	addi	t3,t3,4
   14fd4:	beqz	a4,14fcc <_malloc_r+0x466>
   14fd6:	mv	a2,t3
   14fd8:	j	14ca8 <_malloc_r+0x142>
   14fda:	addi	s5,s5,16
   14fdc:	j	14d76 <_malloc_r+0x210>
   14fde:	lw	a0,4(s2)
   14fe2:	srai	a1,a4,0x2
   14fe6:	li	a4,1
   14fe8:	sll	a4,a4,a1
   14fec:	or	a4,a4,a0
   14fee:	sw	a4,4(s2)
   14ff2:	j	14ea4 <_malloc_r+0x33e>
   14ff4:	add	a1,s7,s5
   14ff8:	neg	a1,a1
   14ffc:	slli	a1,a1,0x14
   14ffe:	srli	s4,a1,0x14
   15002:	mv	a1,s4
   15004:	mv	a0,s3
   15006:	jal	ra,15de0 <_sbrk_r>
   1500a:	li	a5,-1
   1500c:	bne	a0,a5,14de4 <_malloc_r+0x27e>
   15010:	li	s4,0
   15012:	j	14dec <_malloc_r+0x286>
   15014:	li	a4,84
   15018:	bltu	a4,a5,15080 <_malloc_r+0x51a>
   1501c:	srli	a5,a1,0xc
   15020:	addi	a3,a5,111
   15024:	addi	a4,a5,110
   15028:	slli	a3,a3,0x3
   1502a:	j	14e86 <_malloc_r+0x320>
   1502c:	li	a4,340
   15030:	bltu	a4,a5,15098 <_malloc_r+0x532>
   15034:	srli	a5,s1,0xf
   15038:	addi	a2,a5,120
   1503c:	addi	a0,a5,119
   15040:	slli	a3,a2,0x3
   15044:	j	14bfc <_malloc_r+0x96>
   15046:	addi	s8,gp,512 # 1fa10 <__malloc_current_mallinfo>
   1504a:	lw	a5,0(s8)
   1504e:	add	a5,a5,s5
   15050:	sw	a5,0(s8)
   15054:	j	14d9e <_malloc_r+0x238>
   15056:	slli	a4,s4,0x14
   1505a:	bnez	a4,14d9e <_malloc_r+0x238>
   1505e:	lw	s0,8(s2)
   15062:	add	s5,s5,s6
   15064:	ori	s5,s5,1
   15068:	sw	s5,4(s0)
   1506c:	j	14e30 <_malloc_r+0x2ca>
   1506e:	sw	s7,452(gp) # 1f9d4 <__malloc_sbrk_base>
   15072:	j	14db2 <_malloc_r+0x24c>
   15074:	mv	s0,s7
   15076:	j	14e30 <_malloc_r+0x2ca>
   15078:	li	a5,1
   1507a:	sw	a5,4(s7)
   1507e:	j	14f86 <_malloc_r+0x420>
   15080:	li	a4,340
   15084:	bltu	a4,a5,150d6 <_malloc_r+0x570>
   15088:	srli	a5,a1,0xf
   1508c:	addi	a3,a5,120
   15090:	addi	a4,a5,119
   15094:	slli	a3,a3,0x3
   15096:	j	14e86 <_malloc_r+0x320>
   15098:	li	a4,1364
   1509c:	bltu	a4,a5,150ee <_malloc_r+0x588>
   150a0:	srli	a5,s1,0x12
   150a4:	addi	a2,a5,125
   150a8:	addi	a0,a5,124
   150ac:	slli	a3,a2,0x3
   150b0:	j	14bfc <_malloc_r+0x96>
   150b2:	addi	s9,s9,-8
   150b4:	add	s5,s5,s9
   150b6:	sub	s5,s5,s7
   150ba:	li	s4,0
   150bc:	j	14dec <_malloc_r+0x286>
   150be:	addi	a1,s0,8
   150c2:	mv	a0,s3
   150c4:	jal	ra,12706 <_free_r>
   150c8:	lw	s0,8(s2)
   150cc:	lw	a1,0(s8)
   150d0:	lw	s5,4(s0)
   150d4:	j	14e30 <_malloc_r+0x2ca>
   150d6:	li	a4,1364
   150da:	bltu	a4,a5,150fc <_malloc_r+0x596>
   150de:	srli	a5,a1,0x12
   150e2:	addi	a3,a5,125
   150e6:	addi	a4,a5,124
   150ea:	slli	a3,a3,0x3
   150ec:	j	14e86 <_malloc_r+0x320>
   150ee:	li	a3,1016
   150f2:	li	a2,127
   150f6:	li	a0,126
   150fa:	j	14bfc <_malloc_r+0x96>
   150fc:	li	a3,1016
   15100:	li	a4,126
   15104:	j	14e86 <_malloc_r+0x320>
   15106:	lw	a5,4(s2)
   1510a:	j	14fbc <_malloc_r+0x456>

0001510c <memchr>:
   1510c:	andi	a5,a0,3
   15110:	zext.b	a3,a1
   15114:	beqz	a5,15138 <memchr+0x2c>
   15116:	addi	a5,a2,-1
   1511a:	beqz	a2,15142 <memchr+0x36>
   1511c:	li	a2,-1
   1511e:	j	1512e <memchr+0x22>
   15120:	addi	a0,a0,1
   15122:	andi	a4,a0,3
   15126:	beqz	a4,1513a <memchr+0x2e>
   15128:	addi	a5,a5,-1
   1512a:	beq	a5,a2,15142 <memchr+0x36>
   1512e:	lbu	a4,0(a0)
   15132:	bne	a4,a3,15120 <memchr+0x14>
   15136:	ret
   15138:	mv	a5,a2
   1513a:	li	a4,3
   1513c:	bltu	a4,a5,1515a <memchr+0x4e>
   15140:	bnez	a5,15146 <memchr+0x3a>
   15142:	li	a0,0
   15144:	ret
   15146:	add	a5,a5,a0
   15148:	j	15150 <memchr+0x44>
   1514a:	addi	a0,a0,1
   1514c:	beq	a5,a0,15142 <memchr+0x36>
   15150:	lbu	a4,0(a0)
   15154:	bne	a4,a3,1514a <memchr+0x3e>
   15158:	ret
   1515a:	zext.b	a1,a1
   1515e:	slli	a4,a1,0x8
   15162:	or	a4,a4,a1
   15164:	slli	a7,a4,0x10
   15168:	lui	a6,0xfeff0
   1516c:	lui	a1,0x80808
   15170:	or	a7,a7,a4
   15174:	addi	a6,a6,-257 # fefefeff <__BSS_END__+0xfefd04c7>
   15178:	addi	a1,a1,128 # 80808080 <__BSS_END__+0x807e8648>
   1517c:	li	t1,3
   1517e:	lw	a4,0(a0)
   15180:	xor	a4,a7,a4
   15184:	add	a2,a4,a6
   15188:	not	a4,a4
   1518c:	and	a4,a4,a2
   1518e:	and	a4,a4,a1
   15190:	bnez	a4,15146 <memchr+0x3a>
   15192:	addi	a5,a5,-4
   15194:	addi	a0,a0,4
   15196:	bltu	t1,a5,1517e <memchr+0x72>
   1519a:	bnez	a5,15146 <memchr+0x3a>
   1519c:	j	15142 <memchr+0x36>

0001519e <__malloc_lock>:
   1519e:	ret

000151a0 <__malloc_unlock>:
   151a0:	ret

000151a2 <_Balloc>:
   151a2:	lw	a5,76(a0)
   151a4:	addi	sp,sp,-16
   151a6:	sw	s0,8(sp)
   151a8:	sw	s1,4(sp)
   151aa:	sw	ra,12(sp)
   151ac:	sw	s2,0(sp)
   151ae:	mv	s0,a0
   151b0:	mv	s1,a1
   151b2:	beqz	a5,151d6 <_Balloc+0x34>
   151b4:	slli	a4,s1,0x2
   151b8:	add	a5,a5,a4
   151ba:	lw	a0,0(a5)
   151bc:	beqz	a0,151ea <_Balloc+0x48>
   151be:	lw	a4,0(a0)
   151c0:	sw	a4,0(a5)
   151c2:	sw	zero,16(a0)
   151c6:	sw	zero,12(a0)
   151ca:	lw	ra,12(sp)
   151cc:	lw	s0,8(sp)
   151ce:	lw	s1,4(sp)
   151d0:	lw	s2,0(sp)
   151d2:	addi	sp,sp,16
   151d4:	ret
   151d6:	li	a2,33
   151da:	li	a1,4
   151dc:	jal	ra,18c42 <_calloc_r>
   151e0:	sw	a0,76(s0)
   151e2:	mv	a5,a0
   151e4:	bnez	a0,151b4 <_Balloc+0x12>
   151e6:	li	a0,0
   151e8:	j	151ca <_Balloc+0x28>
   151ea:	li	s2,1
   151ec:	sll	s2,s2,s1
   151f0:	addi	a2,s2,5
   151f4:	slli	a2,a2,0x2
   151f6:	li	a1,1
   151f8:	mv	a0,s0
   151fa:	jal	ra,18c42 <_calloc_r>
   151fe:	beqz	a0,151e6 <_Balloc+0x44>
   15200:	sw	s1,4(a0)
   15202:	sw	s2,8(a0)
   15206:	j	151c2 <_Balloc+0x20>

00015208 <_Bfree>:
   15208:	beqz	a1,15218 <_Bfree+0x10>
   1520a:	lw	a4,4(a1)
   1520c:	lw	a5,76(a0)
   1520e:	slli	a4,a4,0x2
   15210:	add	a5,a5,a4
   15212:	lw	a4,0(a5)
   15214:	sw	a4,0(a1)
   15216:	sw	a1,0(a5)
   15218:	ret

0001521a <__multadd>:
   1521a:	addi	sp,sp,-32
   1521c:	sw	s1,20(sp)
   1521e:	lw	s1,16(a1)
   15220:	lui	t1,0x10
   15222:	sw	s0,24(sp)
   15224:	sw	s2,16(sp)
   15226:	sw	s3,12(sp)
   15228:	sw	ra,28(sp)
   1522a:	sw	s4,8(sp)
   1522c:	mv	s2,a1
   1522e:	mv	s3,a0
   15230:	mv	s0,a3
   15232:	addi	a6,a1,20
   15236:	li	a7,0
   15238:	addi	t1,t1,-1
   1523a:	lw	a5,0(a6)
   1523e:	addi	a6,a6,4
   15240:	addi	a7,a7,1
   15242:	and	a4,a5,t1
   15246:	mul	a4,a4,a2
   1524a:	srli	a3,a5,0x10
   1524e:	mul	a3,a3,a2
   15252:	add	a5,a4,s0
   15256:	srli	a4,a5,0x10
   1525a:	and	a5,a5,t1
   1525e:	add	a3,a3,a4
   15260:	slli	a4,a3,0x10
   15264:	add	a5,a5,a4
   15266:	sw	a5,-4(a6)
   1526a:	srli	s0,a3,0x10
   1526e:	blt	a7,s1,1523a <__multadd+0x20>
   15272:	beqz	s0,1528c <__multadd+0x72>
   15274:	lw	a5,8(s2)
   15278:	bge	s1,a5,1529e <__multadd+0x84>
   1527c:	addi	a5,s1,4
   15280:	slli	a5,a5,0x2
   15282:	add	a5,a5,s2
   15284:	sw	s0,4(a5)
   15286:	addi	s1,s1,1
   15288:	sw	s1,16(s2)
   1528c:	lw	ra,28(sp)
   1528e:	lw	s0,24(sp)
   15290:	lw	s1,20(sp)
   15292:	lw	s3,12(sp)
   15294:	lw	s4,8(sp)
   15296:	mv	a0,s2
   15298:	lw	s2,16(sp)
   1529a:	addi	sp,sp,32
   1529c:	ret
   1529e:	lw	a1,4(s2)
   152a2:	mv	a0,s3
   152a4:	addi	a1,a1,1
   152a6:	jal	151a2 <_Balloc>
   152a8:	mv	s4,a0
   152aa:	beqz	a0,152e8 <__multadd+0xce>
   152ac:	lw	a2,16(s2)
   152b0:	addi	a1,s2,12
   152b4:	addi	a0,a0,12
   152b6:	addi	a2,a2,2
   152b8:	slli	a2,a2,0x2
   152ba:	jal	ra,193fe <memcpy>
   152be:	lw	a4,4(s2)
   152c2:	lw	a5,76(s3)
   152c6:	slli	a4,a4,0x2
   152c8:	add	a5,a5,a4
   152ca:	lw	a4,0(a5)
   152cc:	sw	a4,0(s2)
   152d0:	sw	s2,0(a5)
   152d4:	addi	a5,s1,4
   152d8:	mv	s2,s4
   152da:	slli	a5,a5,0x2
   152dc:	add	a5,a5,s2
   152de:	sw	s0,4(a5)
   152e0:	addi	s1,s1,1
   152e2:	sw	s1,16(s2)
   152e6:	j	1528c <__multadd+0x72>
   152e8:	lui	a3,0x1e
   152ea:	lui	a0,0x1e
   152ec:	addi	a3,a3,-1296 # 1daf0 <zeroes.0+0x30>
   152f0:	li	a2,0
   152f2:	li	a1,181
   152f6:	addi	a0,a0,-572 # 1ddc4 <bmask+0x24>
   152fa:	jal	ra,18bfe <__assert_func>

000152fe <__s2b>:
   152fe:	addi	sp,sp,-32
   15300:	sw	s0,24(sp)
   15302:	sw	s1,20(sp)
   15304:	sw	s2,16(sp)
   15306:	sw	s3,12(sp)
   15308:	sw	s4,8(sp)
   1530a:	mv	s3,a3
   1530c:	li	a5,9
   1530e:	addi	a3,a3,8
   15310:	sw	ra,28(sp)
   15312:	sw	s5,4(sp)
   15314:	div	a3,a3,a5
   15318:	mv	s2,a0
   1531a:	mv	s0,a1
   1531c:	mv	s4,a2
   1531e:	mv	s1,a4
   15320:	bge	a5,s3,153a2 <__s2b+0xa4>
   15324:	li	a5,1
   15326:	li	a1,0
   15328:	slli	a5,a5,0x1
   1532a:	addi	a1,a1,1
   1532c:	blt	a5,a3,15328 <__s2b+0x2a>
   15330:	mv	a0,s2
   15332:	jal	151a2 <_Balloc>
   15334:	mv	a1,a0
   15336:	beqz	a0,153a6 <__s2b+0xa8>
   15338:	li	a5,1
   1533a:	sw	a5,16(a0)
   1533c:	sw	s1,20(a0)
   1533e:	li	a5,9
   15340:	bge	a5,s4,1539c <__s2b+0x9e>
   15344:	addi	s5,s0,9
   15348:	mv	s1,s5
   1534a:	add	s0,s0,s4
   1534c:	lbu	a3,0(s1)
   15350:	li	a2,10
   15352:	mv	a0,s2
   15354:	addi	a3,a3,-48
   15358:	jal	1521a <__multadd>
   1535a:	addi	s1,s1,1
   1535c:	mv	a1,a0
   1535e:	bne	s1,s0,1534c <__s2b+0x4e>
   15362:	addi	s0,s4,-8
   15366:	add	s0,s0,s5
   15368:	bge	s4,s3,15388 <__s2b+0x8a>
   1536c:	sub	s3,s3,s4
   15370:	add	s3,s3,s0
   15372:	lbu	a3,0(s0)
   15376:	li	a2,10
   15378:	mv	a0,s2
   1537a:	addi	a3,a3,-48
   1537e:	jal	1521a <__multadd>
   15380:	addi	s0,s0,1
   15382:	mv	a1,a0
   15384:	bne	s3,s0,15372 <__s2b+0x74>
   15388:	lw	ra,28(sp)
   1538a:	lw	s0,24(sp)
   1538c:	lw	s1,20(sp)
   1538e:	lw	s2,16(sp)
   15390:	lw	s3,12(sp)
   15392:	lw	s4,8(sp)
   15394:	lw	s5,4(sp)
   15396:	mv	a0,a1
   15398:	addi	sp,sp,32
   1539a:	ret
   1539c:	addi	s0,s0,10
   1539e:	li	s4,9
   153a0:	j	15368 <__s2b+0x6a>
   153a2:	li	a1,0
   153a4:	j	15330 <__s2b+0x32>
   153a6:	lui	a3,0x1e
   153a8:	lui	a0,0x1e
   153aa:	addi	a3,a3,-1296 # 1daf0 <zeroes.0+0x30>
   153ae:	li	a2,0
   153b0:	li	a1,206
   153b4:	addi	a0,a0,-572 # 1ddc4 <bmask+0x24>
   153b8:	jal	ra,18bfe <__assert_func>

000153bc <__hi0bits>:
   153bc:	lui	a4,0xffff0
   153be:	and	a4,a4,a0
   153c0:	mv	a5,a0
   153c2:	li	a0,0
   153c4:	bnez	a4,153ca <__hi0bits+0xe>
   153c6:	slli	a5,a5,0x10
   153c8:	li	a0,16
   153ca:	lui	a4,0xff000
   153ce:	and	a4,a4,a5
   153d0:	bnez	a4,153d6 <__hi0bits+0x1a>
   153d2:	addi	a0,a0,8
   153d4:	slli	a5,a5,0x8
   153d6:	lui	a4,0xf0000
   153da:	and	a4,a4,a5
   153dc:	bnez	a4,153e2 <__hi0bits+0x26>
   153de:	addi	a0,a0,4
   153e0:	slli	a5,a5,0x4
   153e2:	lui	a4,0xc0000
   153e6:	and	a4,a4,a5
   153e8:	bnez	a4,153ee <__hi0bits+0x32>
   153ea:	addi	a0,a0,2
   153ec:	slli	a5,a5,0x2
   153ee:	bltz	a5,153fc <__hi0bits+0x40>
   153f2:	lui	a4,0x40000
   153f6:	and	a5,a5,a4
   153f8:	addi	a0,a0,1
   153fa:	beqz	a5,153fe <__hi0bits+0x42>
   153fc:	ret
   153fe:	li	a0,32
   15402:	ret

00015404 <__lo0bits>:
   15404:	lw	a5,0(a0)
   15406:	mv	a4,a0
   15408:	andi	a3,a5,7
   1540c:	beqz	a3,15424 <__lo0bits+0x20>
   1540e:	andi	a3,a5,1
   15412:	li	a0,0
   15414:	bnez	a3,15450 <__lo0bits+0x4c>
   15416:	andi	a3,a5,2
   1541a:	beqz	a3,15486 <__lo0bits+0x82>
   1541c:	srli	a5,a5,0x1
   1541e:	sw	a5,0(a4)
   15420:	li	a0,1
   15422:	ret
   15424:	slli	a3,a5,0x10
   15428:	srli	a3,a3,0x10
   1542a:	li	a0,0
   1542c:	beqz	a3,1547a <__lo0bits+0x76>
   1542e:	zext.b	a3,a5
   15432:	beqz	a3,1546e <__lo0bits+0x6a>
   15434:	andi	a3,a5,15
   15438:	beqz	a3,15462 <__lo0bits+0x5e>
   1543a:	andi	a3,a5,3
   1543e:	beqz	a3,15456 <__lo0bits+0x52>
   15440:	andi	a3,a5,1
   15444:	bnez	a3,15452 <__lo0bits+0x4e>
   15446:	srli	a5,a5,0x1
   15448:	addi	a0,a0,1
   1544a:	bnez	a5,15452 <__lo0bits+0x4e>
   1544c:	li	a0,32
   15450:	ret
   15452:	sw	a5,0(a4)
   15454:	ret
   15456:	srli	a5,a5,0x2
   15458:	andi	a3,a5,1
   1545c:	addi	a0,a0,2
   1545e:	bnez	a3,15452 <__lo0bits+0x4e>
   15460:	j	15446 <__lo0bits+0x42>
   15462:	srli	a5,a5,0x4
   15464:	andi	a3,a5,3
   15468:	addi	a0,a0,4
   1546a:	bnez	a3,15440 <__lo0bits+0x3c>
   1546c:	j	15456 <__lo0bits+0x52>
   1546e:	srli	a5,a5,0x8
   15470:	andi	a3,a5,15
   15474:	addi	a0,a0,8
   15476:	bnez	a3,1543a <__lo0bits+0x36>
   15478:	j	15462 <__lo0bits+0x5e>
   1547a:	srli	a5,a5,0x10
   1547c:	zext.b	a3,a5
   15480:	li	a0,16
   15482:	bnez	a3,15434 <__lo0bits+0x30>
   15484:	j	1546e <__lo0bits+0x6a>
   15486:	srli	a5,a5,0x2
   15488:	sw	a5,0(a4)
   1548a:	li	a0,2
   1548c:	ret

0001548e <__i2b>:
   1548e:	lw	a5,76(a0)
   15490:	addi	sp,sp,-16
   15492:	sw	s0,8(sp)
   15494:	sw	s1,4(sp)
   15496:	sw	ra,12(sp)
   15498:	mv	s0,a0
   1549a:	mv	s1,a1
   1549c:	beqz	a5,154ba <__i2b+0x2c>
   1549e:	lw	a0,4(a5)
   154a0:	beqz	a0,154e0 <__i2b+0x52>
   154a2:	lw	a4,0(a0)
   154a4:	sw	a4,4(a5)
   154a6:	lw	ra,12(sp)
   154a8:	lw	s0,8(sp)
   154aa:	li	a5,1
   154ac:	sw	s1,20(a0)
   154ae:	sw	zero,12(a0)
   154b2:	sw	a5,16(a0)
   154b4:	lw	s1,4(sp)
   154b6:	addi	sp,sp,16
   154b8:	ret
   154ba:	li	a2,33
   154be:	li	a1,4
   154c0:	jal	ra,18c42 <_calloc_r>
   154c4:	sw	a0,76(s0)
   154c6:	mv	a5,a0
   154c8:	bnez	a0,1549e <__i2b+0x10>
   154ca:	lui	a3,0x1e
   154cc:	lui	a0,0x1e
   154ce:	addi	a3,a3,-1296 # 1daf0 <zeroes.0+0x30>
   154d2:	li	a2,0
   154d4:	li	a1,320
   154d8:	addi	a0,a0,-572 # 1ddc4 <bmask+0x24>
   154dc:	jal	ra,18bfe <__assert_func>
   154e0:	li	a2,28
   154e2:	li	a1,1
   154e4:	mv	a0,s0
   154e6:	jal	ra,18c42 <_calloc_r>
   154ea:	beqz	a0,154ca <__i2b+0x3c>
   154ec:	li	a5,1
   154ee:	sw	a5,4(a0)
   154f0:	li	a5,2
   154f2:	sw	a5,8(a0)
   154f4:	j	154a6 <__i2b+0x18>

000154f6 <__multiply>:
   154f6:	addi	sp,sp,-32
   154f8:	sw	s2,16(sp)
   154fa:	sw	s3,12(sp)
   154fc:	lw	s2,16(a1)
   15500:	lw	s3,16(a2)
   15504:	sw	s1,20(sp)
   15506:	sw	s4,8(sp)
   15508:	sw	ra,28(sp)
   1550a:	sw	s0,24(sp)
   1550c:	mv	s4,a1
   1550e:	mv	s1,a2
   15510:	blt	s2,s3,1551e <__multiply+0x28>
   15514:	mv	a4,s3
   15516:	mv	s1,a1
   15518:	mv	s3,s2
   1551a:	mv	s4,a2
   1551c:	mv	s2,a4
   1551e:	lw	a5,8(s1)
   15520:	lw	a1,4(s1)
   15522:	add	s0,s3,s2
   15526:	slt	a5,a5,s0
   1552a:	add	a1,a1,a5
   1552c:	jal	151a2 <_Balloc>
   1552e:	beqz	a0,15674 <__multiply+0x17e>
   15532:	addi	t1,a0,20
   15536:	slli	a7,s0,0x2
   1553a:	add	a7,a7,t1
   1553c:	mv	a5,t1
   1553e:	bgeu	t1,a7,1554c <__multiply+0x56>
   15542:	sw	zero,0(a5)
   15546:	addi	a5,a5,4
   15548:	bltu	a5,a7,15542 <__multiply+0x4c>
   1554c:	addi	a6,s4,20
   15550:	slli	t3,s2,0x2
   15554:	addi	t4,s1,20
   15558:	slli	a1,s3,0x2
   1555c:	add	t3,t3,a6
   1555e:	add	a1,a1,t4
   15560:	bgeu	a6,t3,15642 <__multiply+0x14c>
   15564:	addi	a5,s1,21
   15568:	li	t5,4
   1556a:	bgeu	a1,a5,15666 <__multiply+0x170>
   1556e:	lui	a3,0x10
   15570:	addi	a3,a3,-1
   15572:	j	15584 <__multiply+0x8e>
   15574:	srli	t6,t6,0x10
   15578:	bnez	t6,155e8 <__multiply+0xf2>
   1557c:	addi	a6,a6,4
   1557e:	addi	t1,t1,4
   15580:	bgeu	a6,t3,15642 <__multiply+0x14c>
   15584:	lw	t6,0(a6)
   15588:	and	t2,t6,a3
   1558c:	beqz	t2,15574 <__multiply+0x7e>
   15590:	mv	t0,t1
   15592:	mv	t6,t4
   15594:	li	s1,0
   15596:	lw	a5,0(t6)
   1559a:	lw	a2,0(t0) # 10244 <memset+0x8e>
   1559e:	addi	t0,t0,4
   155a0:	and	a4,a5,a3
   155a4:	mul	a4,a4,t2
   155a8:	srli	a5,a5,0x10
   155aa:	and	s2,a2,a3
   155ae:	srli	a2,a2,0x10
   155b0:	addi	t6,t6,4
   155b2:	mul	a5,a5,t2
   155b6:	add	a4,a4,s2
   155b8:	add	a4,a4,s1
   155ba:	srli	s1,a4,0x10
   155be:	and	a4,a4,a3
   155c0:	add	a5,a5,a2
   155c2:	add	a5,a5,s1
   155c4:	slli	a2,a5,0x10
   155c8:	or	a4,a4,a2
   155ca:	sw	a4,-4(t0)
   155ce:	srli	s1,a5,0x10
   155d2:	bltu	t6,a1,15596 <__multiply+0xa0>
   155d6:	add	a5,t1,t5
   155da:	sw	s1,0(a5)
   155dc:	lw	t6,0(a6)
   155e0:	srli	t6,t6,0x10
   155e4:	beqz	t6,1557c <__multiply+0x86>
   155e8:	lw	a4,0(t1) # 10000 <register_fini-0x74>
   155ec:	mv	t0,t1
   155ee:	mv	a2,t4
   155f0:	mv	s1,a4
   155f2:	li	t2,0
   155f4:	lw	a5,0(a2)
   155f6:	srli	s3,s1,0x10
   155fa:	and	a4,a4,a3
   155fc:	and	a5,a5,a3
   155fe:	mul	a5,a5,t6
   15602:	lw	s1,4(t0)
   15606:	addi	t0,t0,4
   15608:	addi	a2,a2,4
   1560a:	and	s2,s1,a3
   1560e:	add	a5,a5,s3
   15610:	add	a5,a5,t2
   15612:	slli	t2,a5,0x10
   15616:	or	a4,t2,a4
   1561a:	sw	a4,-4(t0)
   1561e:	lhu	a4,-2(a2)
   15622:	srli	a5,a5,0x10
   15624:	mul	a4,a4,t6
   15628:	add	a4,a4,s2
   1562a:	add	a4,a4,a5
   1562c:	srli	t2,a4,0x10
   15630:	bltu	a2,a1,155f4 <__multiply+0xfe>
   15634:	add	a5,t1,t5
   15638:	sw	a4,0(a5)
   1563a:	addi	a6,a6,4
   1563c:	addi	t1,t1,4
   1563e:	bltu	a6,t3,15584 <__multiply+0x8e>
   15642:	bgtz	s0,1564c <__multiply+0x156>
   15646:	j	15654 <__multiply+0x15e>
   15648:	addi	s0,s0,-1
   1564a:	beqz	s0,15654 <__multiply+0x15e>
   1564c:	lw	a5,-4(a7)
   15650:	addi	a7,a7,-4
   15652:	beqz	a5,15648 <__multiply+0x152>
   15654:	lw	ra,28(sp)
   15656:	sw	s0,16(a0)
   15658:	lw	s0,24(sp)
   1565a:	lw	s1,20(sp)
   1565c:	lw	s2,16(sp)
   1565e:	lw	s3,12(sp)
   15660:	lw	s4,8(sp)
   15662:	addi	sp,sp,32
   15664:	ret
   15666:	sub	a5,a1,s1
   1566a:	addi	a5,a5,-21
   1566c:	andi	a5,a5,-4
   1566e:	addi	t5,a5,4
   15672:	j	1556e <__multiply+0x78>
   15674:	lui	a3,0x1e
   15676:	lui	a0,0x1e
   15678:	addi	a3,a3,-1296 # 1daf0 <zeroes.0+0x30>
   1567c:	li	a2,0
   1567e:	li	a1,349
   15682:	addi	a0,a0,-572 # 1ddc4 <bmask+0x24>
   15686:	jal	ra,18bfe <__assert_func>

0001568a <__pow5mult>:
   1568a:	addi	sp,sp,-32
   1568c:	sw	s0,24(sp)
   1568e:	sw	s2,16(sp)
   15690:	sw	s3,12(sp)
   15692:	sw	ra,28(sp)
   15694:	sw	s1,20(sp)
   15696:	andi	a5,a2,3
   1569a:	mv	s0,a2
   1569c:	mv	s3,a0
   1569e:	mv	s2,a1
   156a0:	bnez	a5,15710 <__pow5mult+0x86>
   156a2:	srai	s0,s0,0x2
   156a4:	beqz	s0,156ea <__pow5mult+0x60>
   156a6:	lw	s1,72(s3)
   156aa:	beqz	s1,15726 <__pow5mult+0x9c>
   156ac:	andi	a5,s0,1
   156b0:	bnez	a5,156c2 <__pow5mult+0x38>
   156b2:	srai	s0,s0,0x1
   156b4:	beqz	s0,156ea <__pow5mult+0x60>
   156b6:	lw	a0,0(s1)
   156b8:	beqz	a0,156fa <__pow5mult+0x70>
   156ba:	mv	s1,a0
   156bc:	andi	a5,s0,1
   156c0:	beqz	a5,156b2 <__pow5mult+0x28>
   156c2:	mv	a2,s1
   156c4:	mv	a1,s2
   156c6:	mv	a0,s3
   156c8:	jal	154f6 <__multiply>
   156ca:	beqz	s2,1570c <__pow5mult+0x82>
   156ce:	lw	a4,4(s2)
   156d2:	lw	a5,76(s3)
   156d6:	srai	s0,s0,0x1
   156d8:	slli	a4,a4,0x2
   156da:	add	a5,a5,a4
   156dc:	lw	a4,0(a5)
   156de:	sw	a4,0(s2)
   156e2:	sw	s2,0(a5)
   156e6:	mv	s2,a0
   156e8:	bnez	s0,156b6 <__pow5mult+0x2c>
   156ea:	lw	ra,28(sp)
   156ec:	lw	s0,24(sp)
   156ee:	lw	s1,20(sp)
   156f0:	lw	s3,12(sp)
   156f2:	mv	a0,s2
   156f4:	lw	s2,16(sp)
   156f6:	addi	sp,sp,32
   156f8:	ret
   156fa:	mv	a2,s1
   156fc:	mv	a1,s1
   156fe:	mv	a0,s3
   15700:	jal	154f6 <__multiply>
   15702:	sw	a0,0(s1)
   15704:	sw	zero,0(a0)
   15708:	mv	s1,a0
   1570a:	j	156bc <__pow5mult+0x32>
   1570c:	mv	s2,a0
   1570e:	j	156b2 <__pow5mult+0x28>
   15710:	addi	a5,a5,-1
   15712:	lui	a4,0x1e
   15714:	addi	a4,a4,-472 # 1de28 <p05.0>
   15718:	slli	a5,a5,0x2
   1571a:	add	a5,a5,a4
   1571c:	lw	a2,0(a5)
   1571e:	li	a3,0
   15720:	jal	1521a <__multadd>
   15722:	mv	s2,a0
   15724:	j	156a2 <__pow5mult+0x18>
   15726:	li	a1,1
   15728:	mv	a0,s3
   1572a:	jal	151a2 <_Balloc>
   1572c:	mv	s1,a0
   1572e:	beqz	a0,15744 <__pow5mult+0xba>
   15730:	li	a5,625
   15734:	sw	a5,20(a0)
   15736:	li	a5,1
   15738:	sw	a5,16(a0)
   1573a:	sw	a0,72(s3)
   1573e:	sw	zero,0(a0)
   15742:	j	156ac <__pow5mult+0x22>
   15744:	lui	a3,0x1e
   15746:	lui	a0,0x1e
   15748:	addi	a3,a3,-1296 # 1daf0 <zeroes.0+0x30>
   1574c:	li	a2,0
   1574e:	li	a1,320
   15752:	addi	a0,a0,-572 # 1ddc4 <bmask+0x24>
   15756:	jal	ra,18bfe <__assert_func>

0001575a <__lshift>:
   1575a:	addi	sp,sp,-32
   1575c:	sw	s4,8(sp)
   1575e:	lw	s4,16(a1)
   15762:	lw	a5,8(a1)
   15764:	sw	s3,12(sp)
   15766:	srai	s3,a2,0x5
   1576a:	add	s4,s4,s3
   1576c:	sw	s0,24(sp)
   1576e:	sw	s1,20(sp)
   15770:	sw	s2,16(sp)
   15772:	sw	s5,4(sp)
   15774:	sw	ra,28(sp)
   15776:	addi	s2,s4,1
   1577a:	mv	s1,a1
   1577c:	mv	s0,a2
   1577e:	lw	a1,4(a1)
   15780:	mv	s5,a0
   15782:	bge	a5,s2,1578e <__lshift+0x34>
   15786:	slli	a5,a5,0x1
   15788:	addi	a1,a1,1
   1578a:	blt	a5,s2,15786 <__lshift+0x2c>
   1578e:	mv	a0,s5
   15790:	jal	151a2 <_Balloc>
   15792:	beqz	a0,15850 <__lshift+0xf6>
   15794:	addi	a6,a0,20
   15798:	blez	s3,157b4 <__lshift+0x5a>
   1579c:	addi	s3,s3,5
   1579e:	slli	s3,s3,0x2
   157a0:	add	a4,a0,s3
   157a4:	mv	a5,a6
   157a6:	addi	a5,a5,4
   157a8:	sw	zero,-4(a5)
   157ac:	bne	a5,a4,157a6 <__lshift+0x4c>
   157b0:	addi	s3,s3,-20
   157b2:	add	a6,a6,s3
   157b4:	lw	a7,16(s1)
   157b8:	addi	a5,s1,20
   157bc:	andi	a2,s0,31
   157c0:	slli	a7,a7,0x2
   157c2:	add	a7,a7,a5
   157c4:	beqz	a2,15832 <__lshift+0xd8>
   157c6:	li	a1,32
   157ca:	sub	a1,a1,a2
   157cc:	mv	t1,a6
   157ce:	li	a3,0
   157d0:	lw	a4,0(a5)
   157d2:	addi	t1,t1,4
   157d4:	addi	a5,a5,4
   157d6:	sll	a4,a4,a2
   157da:	or	a4,a4,a3
   157dc:	sw	a4,-4(t1)
   157e0:	lw	a3,-4(a5)
   157e4:	srl	a3,a3,a1
   157e8:	bltu	a5,a7,157d0 <__lshift+0x76>
   157ec:	addi	a5,s1,21
   157f0:	li	a4,4
   157f2:	bltu	a7,a5,15802 <__lshift+0xa8>
   157f6:	sub	a5,a7,s1
   157fa:	addi	a5,a5,-21
   157fc:	andi	a5,a5,-4
   157fe:	addi	a4,a5,4
   15802:	add	a6,a6,a4
   15804:	sw	a3,0(a6)
   15808:	beqz	a3,1580c <__lshift+0xb2>
   1580a:	mv	s4,s2
   1580c:	lw	a4,4(s1)
   1580e:	lw	a5,76(s5)
   15812:	lw	ra,28(sp)
   15814:	slli	a4,a4,0x2
   15816:	add	a5,a5,a4
   15818:	lw	a4,0(a5)
   1581a:	sw	s4,16(a0)
   1581e:	lw	s0,24(sp)
   15820:	sw	a4,0(s1)
   15822:	sw	s1,0(a5)
   15824:	lw	s2,16(sp)
   15826:	lw	s1,20(sp)
   15828:	lw	s3,12(sp)
   1582a:	lw	s4,8(sp)
   1582c:	lw	s5,4(sp)
   1582e:	addi	sp,sp,32
   15830:	ret
   15832:	lw	a4,0(a5)
   15834:	addi	a5,a5,4
   15836:	addi	a6,a6,4
   15838:	sw	a4,-4(a6)
   1583c:	bgeu	a5,a7,1580c <__lshift+0xb2>
   15840:	lw	a4,0(a5)
   15842:	addi	a5,a5,4
   15844:	addi	a6,a6,4
   15846:	sw	a4,-4(a6)
   1584a:	bltu	a5,a7,15832 <__lshift+0xd8>
   1584e:	j	1580c <__lshift+0xb2>
   15850:	lui	a3,0x1e
   15852:	lui	a0,0x1e
   15854:	addi	a3,a3,-1296 # 1daf0 <zeroes.0+0x30>
   15858:	li	a2,0
   1585a:	li	a1,473
   1585e:	addi	a0,a0,-572 # 1ddc4 <bmask+0x24>
   15862:	jal	ra,18bfe <__assert_func>

00015866 <__mcmp>:
   15866:	lw	a4,16(a0)
   15868:	lw	a5,16(a1)
   1586a:	mv	a6,a0
   1586c:	sub	a0,a4,a5
   15870:	bne	a4,a5,158a4 <__mcmp+0x3e>
   15874:	slli	a5,a5,0x2
   15876:	addi	a6,a6,20
   15878:	addi	a1,a1,20
   1587a:	add	a4,a6,a5
   1587e:	add	a5,a5,a1
   15880:	j	15886 <__mcmp+0x20>
   15882:	bgeu	a6,a4,158a4 <__mcmp+0x3e>
   15886:	lw	a3,-4(a4)
   1588a:	lw	a2,-4(a5)
   1588e:	addi	a4,a4,-4
   15890:	addi	a5,a5,-4
   15892:	beq	a3,a2,15882 <__mcmp+0x1c>
   15896:	sltu	a3,a3,a2
   1589a:	neg	a3,a3
   1589e:	ori	a0,a3,1
   158a2:	ret
   158a4:	ret

000158a6 <__mdiff>:
   158a6:	lw	a4,16(a1)
   158a8:	lw	a5,16(a2)
   158aa:	addi	sp,sp,-16
   158ac:	sw	s0,8(sp)
   158ae:	sw	s1,4(sp)
   158b0:	sw	s2,0(sp)
   158b2:	sw	ra,12(sp)
   158b4:	mv	s1,a1
   158b6:	mv	s0,a2
   158b8:	sub	s2,a4,a5
   158bc:	bne	a4,a5,159ea <__mdiff+0x144>
   158c0:	slli	a3,a5,0x2
   158c4:	addi	a1,a1,20
   158c6:	addi	a4,a2,20
   158ca:	add	a5,a1,a3
   158ce:	add	a4,a4,a3
   158d0:	j	158d6 <__mdiff+0x30>
   158d2:	bgeu	a1,a5,159f2 <__mdiff+0x14c>
   158d6:	lw	a2,-4(a5)
   158da:	lw	a3,-4(a4)
   158de:	addi	a5,a5,-4
   158e0:	addi	a4,a4,-4
   158e2:	beq	a2,a3,158d2 <__mdiff+0x2c>
   158e6:	bltu	a2,a3,159e0 <__mdiff+0x13a>
   158ea:	lw	a1,4(s1)
   158ec:	jal	151a2 <_Balloc>
   158ee:	beqz	a0,15a0e <__mdiff+0x168>
   158f2:	lw	t3,16(s1)
   158f6:	lw	a1,16(s0)
   158f8:	addi	s1,s1,20
   158fa:	slli	t4,t3,0x2
   158fe:	addi	a6,s0,20
   15902:	slli	a1,a1,0x2
   15904:	addi	a2,a0,20
   15908:	lui	a7,0x10
   1590a:	sw	s2,12(a0)
   1590e:	add	t4,t4,s1
   15910:	add	a1,a1,a6
   15912:	mv	t5,a2
   15914:	mv	t1,s1
   15916:	li	t6,0
   15918:	addi	a7,a7,-1
   1591a:	lw	a5,0(t1)
   1591e:	lw	a3,0(a6)
   15922:	addi	t5,t5,4
   15924:	and	a4,a5,a7
   15928:	add	a4,a4,t6
   1592a:	and	t6,a3,a7
   1592e:	sub	a4,a4,t6
   15932:	srli	a3,a3,0x10
   15934:	srli	a5,a5,0x10
   15936:	sub	a5,a5,a3
   15938:	srai	a3,a4,0x10
   1593c:	add	a5,a5,a3
   1593e:	slli	a3,a5,0x10
   15942:	and	a4,a4,a7
   15946:	or	a4,a4,a3
   15948:	addi	a6,a6,4
   1594a:	sw	a4,-4(t5)
   1594e:	addi	t1,t1,4
   15950:	srai	t6,a5,0x10
   15954:	bltu	a6,a1,1591a <__mdiff+0x74>
   15958:	sub	a3,a1,s0
   1595c:	addi	a3,a3,-21
   1595e:	addi	s0,s0,21
   15960:	srli	a3,a3,0x2
   15962:	li	a5,0
   15964:	bltu	a1,s0,1596c <__mdiff+0xc6>
   15968:	slli	a5,a3,0x2
   1596c:	add	a5,a5,a2
   1596e:	li	a6,4
   15970:	bltu	a1,s0,1597a <__mdiff+0xd4>
   15974:	addi	a3,a3,1
   15976:	slli	a6,a3,0x2
   1597a:	add	s1,s1,a6
   1597c:	add	a7,a2,a6
   15980:	bgeu	s1,t4,159c4 <__mdiff+0x11e>
   15984:	lui	a6,0x10
   15986:	mv	a1,a7
   15988:	mv	a2,s1
   1598a:	addi	a6,a6,-1
   1598c:	lw	a5,0(a2)
   1598e:	addi	a1,a1,4
   15990:	addi	a2,a2,4
   15992:	and	a3,a5,a6
   15996:	add	a3,a3,t6
   15998:	srai	a4,a3,0x10
   1599c:	srli	a5,a5,0x10
   1599e:	add	a5,a5,a4
   159a0:	slli	a4,a5,0x10
   159a4:	and	a3,a3,a6
   159a8:	or	a4,a4,a3
   159aa:	sw	a4,-4(a1)
   159ae:	srai	t6,a5,0x10
   159b2:	bltu	a2,t4,1598c <__mdiff+0xe6>
   159b6:	addi	t4,t4,-1
   159b8:	sub	t4,t4,s1
   159bc:	andi	t4,t4,-4
   159c0:	add	a5,a7,t4
   159c4:	bnez	a4,159d0 <__mdiff+0x12a>
   159c6:	lw	a4,-4(a5)
   159ca:	addi	t3,t3,-1
   159cc:	addi	a5,a5,-4
   159ce:	beqz	a4,159c6 <__mdiff+0x120>
   159d0:	lw	ra,12(sp)
   159d2:	lw	s0,8(sp)
   159d4:	sw	t3,16(a0)
   159d8:	lw	s1,4(sp)
   159da:	lw	s2,0(sp)
   159dc:	addi	sp,sp,16
   159de:	ret
   159e0:	mv	a5,s1
   159e2:	li	s2,1
   159e4:	mv	s1,s0
   159e6:	mv	s0,a5
   159e8:	j	158ea <__mdiff+0x44>
   159ea:	bltz	s2,159e0 <__mdiff+0x13a>
   159ee:	li	s2,0
   159f0:	j	158ea <__mdiff+0x44>
   159f2:	li	a1,0
   159f4:	jal	ra,151a2 <_Balloc>
   159f8:	beqz	a0,15a24 <__mdiff+0x17e>
   159fa:	lw	ra,12(sp)
   159fc:	lw	s0,8(sp)
   159fe:	li	a5,1
   15a00:	sw	a5,16(a0)
   15a02:	sw	zero,20(a0)
   15a06:	lw	s1,4(sp)
   15a08:	lw	s2,0(sp)
   15a0a:	addi	sp,sp,16
   15a0c:	ret
   15a0e:	lui	a3,0x1e
   15a10:	lui	a0,0x1e
   15a12:	addi	a3,a3,-1296 # 1daf0 <zeroes.0+0x30>
   15a16:	li	a2,0
   15a18:	li	a1,576
   15a1c:	addi	a0,a0,-572 # 1ddc4 <bmask+0x24>
   15a20:	jal	ra,18bfe <__assert_func>
   15a24:	lui	a3,0x1e
   15a26:	lui	a0,0x1e
   15a28:	addi	a3,a3,-1296 # 1daf0 <zeroes.0+0x30>
   15a2c:	li	a2,0
   15a2e:	li	a1,562
   15a32:	addi	a0,a0,-572 # 1ddc4 <bmask+0x24>
   15a36:	jal	ra,18bfe <__assert_func>

00015a3a <__ulp>:
   15a3a:	addi	sp,sp,-16
   15a3c:	fsd	fa0,8(sp)
   15a3e:	lw	a4,12(sp)
   15a40:	lui	a5,0x7ff00
   15a44:	and	a5,a5,a4
   15a46:	lui	a4,0xfcc00
   15a4a:	add	a5,a5,a4
   15a4c:	li	a4,0
   15a4e:	blez	a5,15a5c <__ulp+0x22>
   15a52:	sw	a4,8(sp)
   15a54:	sw	a5,12(sp)
   15a56:	fld	fa0,8(sp)
   15a58:	addi	sp,sp,16
   15a5a:	ret
   15a5c:	neg	a5,a5
   15a60:	srai	a5,a5,0x14
   15a62:	li	a4,19
   15a64:	blt	a4,a5,15a7c <__ulp+0x42>
   15a68:	lui	a4,0x80
   15a6c:	sra	a5,a4,a5
   15a70:	li	a4,0
   15a72:	sw	a4,8(sp)
   15a74:	sw	a5,12(sp)
   15a76:	fld	fa0,8(sp)
   15a78:	addi	sp,sp,16
   15a7a:	ret
   15a7c:	addi	a5,a5,-20
   15a7e:	li	a3,30
   15a80:	li	a4,1
   15a82:	blt	a3,a5,15a8e <__ulp+0x54>
   15a86:	lui	a4,0x80000
   15a8a:	srl	a4,a4,a5
   15a8e:	li	a5,0
   15a90:	sw	a4,8(sp)
   15a92:	sw	a5,12(sp)
   15a94:	fld	fa0,8(sp)
   15a96:	addi	sp,sp,16
   15a98:	ret

00015a9a <__b2d>:
   15a9a:	addi	sp,sp,-48
   15a9c:	sw	s1,36(sp)
   15a9e:	lw	s1,16(a0)
   15aa0:	sw	s0,40(sp)
   15aa2:	addi	s0,a0,20
   15aa6:	slli	s1,s1,0x2
   15aa8:	add	s1,s1,s0
   15aaa:	sw	s2,32(sp)
   15aac:	lw	s2,-4(s1)
   15ab0:	sw	s3,28(sp)
   15ab2:	sw	s4,24(sp)
   15ab4:	mv	a0,s2
   15ab6:	mv	s3,a1
   15ab8:	sw	ra,44(sp)
   15aba:	jal	153bc <__hi0bits>
   15abc:	li	a4,32
   15ac0:	sub	a5,a4,a0
   15ac4:	sw	a5,0(s3)
   15ac8:	li	a5,10
   15aca:	addi	s4,s1,-4
   15ace:	bge	a5,a0,15b30 <__b2d+0x96>
   15ad2:	addi	a0,a0,-11
   15ad4:	bgeu	s0,s4,15b0e <__b2d+0x74>
   15ad8:	lw	a5,-8(s1)
   15adc:	beqz	a0,15b12 <__b2d+0x78>
   15ade:	sub	a3,a4,a0
   15ae2:	srl	a4,a5,a3
   15ae6:	sll	s2,s2,a0
   15aea:	or	s2,s2,a4
   15aee:	addi	a2,s1,-8
   15af2:	lui	a4,0x3ff00
   15af6:	or	a4,s2,a4
   15afa:	sll	a5,a5,a0
   15afe:	bgeu	s0,a2,15b1a <__b2d+0x80>
   15b02:	lw	a2,-12(s1)
   15b06:	srl	a3,a2,a3
   15b0a:	or	a5,a5,a3
   15b0c:	j	15b1a <__b2d+0x80>
   15b0e:	li	a5,0
   15b10:	bnez	a0,15b58 <__b2d+0xbe>
   15b12:	lui	a4,0x3ff00
   15b16:	or	a4,s2,a4
   15b1a:	lw	ra,44(sp)
   15b1c:	lw	s0,40(sp)
   15b1e:	sw	a5,8(sp)
   15b20:	sw	a4,12(sp)
   15b22:	fld	fa0,8(sp)
   15b24:	lw	s1,36(sp)
   15b26:	lw	s2,32(sp)
   15b28:	lw	s3,28(sp)
   15b2a:	lw	s4,24(sp)
   15b2c:	addi	sp,sp,48
   15b2e:	ret
   15b30:	li	a3,11
   15b32:	sub	a3,a3,a0
   15b34:	lui	a5,0x3ff00
   15b38:	srl	a4,s2,a3
   15b3c:	or	a4,a4,a5
   15b3e:	li	a5,0
   15b40:	bgeu	s0,s4,15b4c <__b2d+0xb2>
   15b44:	lw	a5,-8(s1)
   15b48:	srl	a5,a5,a3
   15b4c:	addi	a0,a0,21
   15b4e:	sll	s2,s2,a0
   15b52:	or	a5,s2,a5
   15b56:	j	15b1a <__b2d+0x80>
   15b58:	sll	s2,s2,a0
   15b5c:	lui	a4,0x3ff00
   15b60:	or	a4,s2,a4
   15b64:	li	a5,0
   15b66:	j	15b1a <__b2d+0x80>

00015b68 <__d2b>:
   15b68:	addi	sp,sp,-64
   15b6a:	sw	s4,40(sp)
   15b6c:	fsd	fa0,8(sp)
   15b6e:	mv	s4,a1
   15b70:	li	a1,1
   15b72:	sw	s1,52(sp)
   15b74:	sw	s3,44(sp)
   15b76:	sw	s5,36(sp)
   15b78:	sw	ra,60(sp)
   15b7a:	sw	s0,56(sp)
   15b7c:	sw	s2,48(sp)
   15b7e:	lw	s5,8(sp)
   15b80:	lw	s1,12(sp)
   15b82:	mv	s3,a2
   15b84:	jal	ra,151a2 <_Balloc>
   15b88:	beqz	a0,15c3a <__d2b+0xd2>
   15b8a:	lui	a4,0x100
   15b8e:	srli	s2,s1,0x14
   15b92:	addi	a5,a4,-1 # fffff <__BSS_END__+0xe05c7>
   15b96:	andi	s2,s2,2047
   15b9a:	mv	s0,a0
   15b9c:	and	a5,a5,s1
   15b9e:	beqz	s2,15ba4 <__d2b+0x3c>
   15ba2:	or	a5,a5,a4
   15ba4:	sw	a5,28(sp)
   15ba6:	bnez	s5,15be8 <__d2b+0x80>
   15baa:	addi	a0,sp,28
   15bac:	jal	15404 <__lo0bits>
   15bae:	lw	a4,28(sp)
   15bb0:	li	s1,1
   15bb2:	sw	s1,16(s0)
   15bb4:	sw	a4,20(s0)
   15bb6:	addi	a5,a0,32
   15bba:	beqz	s2,15c18 <__d2b+0xb0>
   15bbe:	addi	s2,s2,-1075
   15bc2:	add	s2,s2,a5
   15bc4:	li	s1,53
   15bc8:	sw	s2,0(s4)
   15bcc:	sub	a0,s1,a5
   15bd0:	sw	a0,0(s3)
   15bd4:	lw	ra,60(sp)
   15bd6:	mv	a0,s0
   15bd8:	lw	s0,56(sp)
   15bda:	lw	s1,52(sp)
   15bdc:	lw	s2,48(sp)
   15bde:	lw	s3,44(sp)
   15be0:	lw	s4,40(sp)
   15be2:	lw	s5,36(sp)
   15be4:	addi	sp,sp,64
   15be6:	ret
   15be8:	addi	a0,sp,24
   15bea:	sw	s5,24(sp)
   15bec:	jal	15404 <__lo0bits>
   15bee:	lw	a4,28(sp)
   15bf0:	mv	a5,a0
   15bf2:	beqz	a0,15c34 <__d2b+0xcc>
   15bf4:	lw	a2,24(sp)
   15bf6:	li	a3,32
   15bfa:	sub	a3,a3,a0
   15bfc:	sll	a3,a4,a3
   15c00:	or	a3,a3,a2
   15c02:	srl	a4,a4,a0
   15c06:	sw	a3,20(s0)
   15c08:	sw	a4,28(sp)
   15c0a:	snez	s1,a4
   15c0e:	addi	s1,s1,1
   15c10:	sw	a4,24(s0)
   15c12:	sw	s1,16(s0)
   15c14:	bnez	s2,15bbe <__d2b+0x56>
   15c18:	slli	a4,s1,0x2
   15c1c:	add	a4,a4,s0
   15c1e:	lw	a0,16(a4)
   15c20:	addi	a5,a5,-1074 # 3feffbce <__BSS_END__+0x3fee0196>
   15c24:	sw	a5,0(s4)
   15c28:	jal	ra,153bc <__hi0bits>
   15c2c:	slli	s1,s1,0x5
   15c2e:	sub	a0,s1,a0
   15c32:	j	15bd0 <__d2b+0x68>
   15c34:	lw	a3,24(sp)
   15c36:	sw	a3,20(s0)
   15c38:	j	15c0a <__d2b+0xa2>
   15c3a:	lui	a3,0x1e
   15c3c:	lui	a0,0x1e
   15c3e:	addi	a3,a3,-1296 # 1daf0 <zeroes.0+0x30>
   15c42:	li	a2,0
   15c44:	li	a1,778
   15c48:	addi	a0,a0,-572 # 1ddc4 <bmask+0x24>
   15c4c:	jal	ra,18bfe <__assert_func>

00015c50 <__ratio>:
   15c50:	addi	sp,sp,-48
   15c52:	sw	s0,40(sp)
   15c54:	mv	s0,a1
   15c56:	addi	a1,sp,24
   15c58:	sw	ra,44(sp)
   15c5a:	sw	s1,36(sp)
   15c5c:	mv	s1,a0
   15c5e:	jal	15a9a <__b2d>
   15c60:	addi	a1,sp,28
   15c62:	mv	a0,s0
   15c64:	fsd	fa0,0(sp)
   15c66:	fsd	fa0,8(sp)
   15c68:	jal	15a9a <__b2d>
   15c6a:	lw	a4,16(s0)
   15c6c:	lw	a5,16(s1)
   15c6e:	lw	a1,28(sp)
   15c70:	fsd	fa0,0(sp)
   15c72:	sub	a5,a5,a4
   15c74:	lw	a4,24(sp)
   15c76:	slli	a5,a5,0x5
   15c78:	sub	a4,a4,a1
   15c7a:	add	a5,a5,a4
   15c7c:	blez	a5,15c9a <__ratio+0x4a>
   15c80:	lw	a3,12(sp)
   15c82:	slli	a5,a5,0x14
   15c84:	fld	fa4,0(sp)
   15c86:	add	a5,a5,a3
   15c88:	sw	a5,12(sp)
   15c8a:	fld	fa5,8(sp)
   15c8c:	lw	ra,44(sp)
   15c8e:	lw	s0,40(sp)
   15c90:	lw	s1,36(sp)
   15c92:	fdiv.d	fa0,fa5,fa4
   15c96:	addi	sp,sp,48
   15c98:	ret
   15c9a:	lw	a3,4(sp)
   15c9c:	slli	a5,a5,0x14
   15c9e:	fld	fa5,8(sp)
   15ca0:	sub	a5,a3,a5
   15ca4:	sw	a5,4(sp)
   15ca6:	fld	fa4,0(sp)
   15ca8:	lw	ra,44(sp)
   15caa:	lw	s0,40(sp)
   15cac:	lw	s1,36(sp)
   15cae:	fdiv.d	fa0,fa5,fa4
   15cb2:	addi	sp,sp,48
   15cb4:	ret

00015cb6 <_mprec_log10>:
   15cb6:	li	a5,23
   15cb8:	bge	a5,a0,15cce <_mprec_log10+0x18>
   15cbc:	fld	fa0,416(gp) # 1f9b0 <__SDATA_BEGIN__>
   15cc0:	fld	fa5,424(gp) # 1f9b8 <__SDATA_BEGIN__+0x8>
   15cc4:	addi	a0,a0,-1
   15cc6:	fmul.d	fa0,fa0,fa5
   15cca:	bnez	a0,15cc4 <_mprec_log10+0xe>
   15ccc:	ret
   15cce:	lui	a5,0x1e
   15cd0:	slli	a0,a0,0x3
   15cd2:	addi	a5,a5,-472 # 1de28 <p05.0>
   15cd6:	add	a5,a5,a0
   15cd8:	fld	fa0,16(a5)
   15cda:	ret

00015cdc <__copybits>:
   15cdc:	lw	a3,16(a2)
   15cde:	addi	a1,a1,-1
   15ce0:	srai	a1,a1,0x5
   15ce2:	addi	a1,a1,1
   15ce4:	addi	a5,a2,20
   15ce8:	slli	a3,a3,0x2
   15cea:	slli	a1,a1,0x2
   15cec:	add	a3,a3,a5
   15cee:	add	a1,a1,a0
   15cf0:	bgeu	a5,a3,15d12 <__copybits+0x36>
   15cf4:	mv	a4,a0
   15cf6:	lw	a6,0(a5)
   15cfa:	addi	a5,a5,4
   15cfc:	addi	a4,a4,4
   15cfe:	sw	a6,-4(a4)
   15d02:	bltu	a5,a3,15cf6 <__copybits+0x1a>
   15d06:	sub	a5,a3,a2
   15d0a:	addi	a5,a5,-21
   15d0c:	andi	a5,a5,-4
   15d0e:	addi	a5,a5,4
   15d10:	add	a0,a0,a5
   15d12:	bgeu	a0,a1,15d20 <__copybits+0x44>
   15d16:	addi	a0,a0,4
   15d18:	sw	zero,-4(a0)
   15d1c:	bltu	a0,a1,15d16 <__copybits+0x3a>
   15d20:	ret

00015d22 <__any_on>:
   15d22:	lw	a4,16(a0)
   15d24:	srai	a2,a1,0x5
   15d28:	addi	a3,a0,20
   15d2c:	bge	a4,a2,15d46 <__any_on+0x24>
   15d30:	slli	a4,a4,0x2
   15d32:	add	a5,a3,a4
   15d36:	bgeu	a3,a5,15d66 <__any_on+0x44>
   15d3a:	lw	a4,-4(a5)
   15d3e:	addi	a5,a5,-4
   15d40:	beqz	a4,15d36 <__any_on+0x14>
   15d42:	li	a0,1
   15d44:	ret
   15d46:	slli	a5,a2,0x2
   15d4a:	add	a5,a5,a3
   15d4c:	bge	a2,a4,15d36 <__any_on+0x14>
   15d50:	andi	a1,a1,31
   15d52:	beqz	a1,15d36 <__any_on+0x14>
   15d54:	lw	a2,0(a5)
   15d56:	li	a0,1
   15d58:	srl	a4,a2,a1
   15d5c:	sll	a4,a4,a1
   15d60:	beq	a2,a4,15d36 <__any_on+0x14>
   15d64:	ret
   15d66:	li	a0,0
   15d68:	ret

00015d6a <frexp>:
   15d6a:	addi	sp,sp,-16
   15d6c:	fsd	fa0,8(sp)
   15d6e:	lw	t2,12(sp)
   15d70:	lui	a2,0x80000
   15d74:	not	a2,a2
   15d78:	and	a3,a2,t2
   15d7c:	sw	zero,0(a0)
   15d80:	lui	a6,0x7ff00
   15d84:	lw	t1,8(sp)
   15d86:	bge	a3,a6,15dd6 <frexp+0x6c>
   15d8a:	or	a7,a3,t1
   15d8e:	beqz	a7,15dd6 <frexp+0x6c>
   15d92:	and	a6,t2,a6
   15d96:	mv	a1,t2
   15d98:	li	a7,0
   15d9a:	bnez	a6,15db6 <frexp+0x4c>
   15d9e:	fld	fa5,432(gp) # 1f9c0 <__SDATA_BEGIN__+0x10>
   15da2:	li	a7,-54
   15da6:	fmul.d	fa5,fa0,fa5
   15daa:	fsd	fa5,8(sp)
   15dac:	lw	t2,12(sp)
   15dae:	lw	t1,8(sp)
   15db0:	mv	a1,t2
   15db2:	and	a3,a2,t2
   15db6:	lui	a5,0x80100
   15dba:	addi	a5,a5,-1
   15dbc:	and	a1,a1,a5
   15dbe:	lui	a5,0x3fe00
   15dc2:	or	a1,a1,a5
   15dc4:	sw	t1,8(sp)
   15dc6:	srai	a3,a3,0x14
   15dc8:	sw	a1,12(sp)
   15dca:	addi	a3,a3,-1022
   15dce:	lw	t1,8(sp)
   15dd0:	lw	t2,12(sp)
   15dd2:	add	a3,a3,a7
   15dd4:	sw	a3,0(a0)
   15dd6:	sw	t1,8(sp)
   15dd8:	sw	t2,12(sp)
   15dda:	fld	fa0,8(sp)
   15ddc:	addi	sp,sp,16
   15dde:	ret

00015de0 <_sbrk_r>:
   15de0:	addi	sp,sp,-16
   15de2:	sw	s0,8(sp)
   15de4:	sw	s1,4(sp)
   15de6:	mv	s0,a0
   15de8:	mv	a0,a1
   15dea:	sw	ra,12(sp)
   15dec:	sw	zero,476(gp) # 1f9ec <errno>
   15df0:	jal	ra,1aef0 <_sbrk>
   15df4:	li	a5,-1
   15df6:	beq	a0,a5,15e04 <_sbrk_r+0x24>
   15dfa:	lw	ra,12(sp)
   15dfc:	lw	s0,8(sp)
   15dfe:	lw	s1,4(sp)
   15e00:	addi	sp,sp,16
   15e02:	ret
   15e04:	lw	a5,476(gp) # 1f9ec <errno>
   15e08:	beqz	a5,15dfa <_sbrk_r+0x1a>
   15e0a:	lw	ra,12(sp)
   15e0c:	sw	a5,0(s0)
   15e0e:	lw	s0,8(sp)
   15e10:	lw	s1,4(sp)
   15e12:	addi	sp,sp,16
   15e14:	ret

00015e16 <_sprintf_r>:
   15e16:	addi	sp,sp,-160
   15e18:	addi	t4,sp,140
   15e1c:	sw	a5,148(sp)
   15e1e:	lui	t1,0x80000
   15e22:	lui	a5,0xffff0
   15e24:	mv	t3,a1
   15e26:	not	t1,t1
   15e2a:	sw	a3,140(sp)
   15e2c:	addi	a5,a5,520 # ffff0208 <__BSS_END__+0xfffd07d0>
   15e30:	addi	a1,sp,8
   15e32:	mv	a3,t4
   15e34:	sw	ra,124(sp)
   15e36:	sw	a5,20(sp)
   15e38:	sw	a4,144(sp)
   15e3a:	sw	a6,152(sp)
   15e3c:	sw	a7,156(sp)
   15e3e:	sw	t3,8(sp)
   15e40:	sw	t3,24(sp)
   15e42:	sw	t1,28(sp)
   15e44:	sw	t1,16(sp)
   15e46:	sw	t4,4(sp)
   15e48:	jal	160ce <_svfprintf_r>
   15e4a:	lw	a5,8(sp)
   15e4c:	sb	zero,0(a5)
   15e50:	lw	ra,124(sp)
   15e52:	addi	sp,sp,160
   15e54:	ret

00015e56 <sprintf>:
   15e56:	mv	t3,a0
   15e58:	addi	sp,sp,-160
   15e5a:	lw	a0,448(gp) # 1f9d0 <_impure_ptr>
   15e5e:	addi	t4,sp,136
   15e62:	sw	a5,148(sp)
   15e64:	lui	t1,0x80000
   15e68:	lui	a5,0xffff0
   15e6a:	not	t1,t1
   15e6e:	sw	a2,136(sp)
   15e70:	sw	a3,140(sp)
   15e72:	addi	a5,a5,520 # ffff0208 <__BSS_END__+0xfffd07d0>
   15e76:	mv	a2,a1
   15e78:	mv	a3,t4
   15e7a:	addi	a1,sp,8
   15e7c:	sw	ra,124(sp)
   15e7e:	sw	a5,20(sp)
   15e80:	sw	a4,144(sp)
   15e82:	sw	a6,152(sp)
   15e84:	sw	a7,156(sp)
   15e86:	sw	t3,8(sp)
   15e88:	sw	t3,24(sp)
   15e8a:	sw	t1,28(sp)
   15e8c:	sw	t1,16(sp)
   15e8e:	sw	t4,4(sp)
   15e90:	jal	160ce <_svfprintf_r>
   15e92:	lw	a5,8(sp)
   15e94:	sb	zero,0(a5)
   15e98:	lw	ra,124(sp)
   15e9a:	addi	sp,sp,160
   15e9c:	ret

00015e9e <__sread>:
   15e9e:	addi	sp,sp,-16
   15ea0:	sw	s0,8(sp)
   15ea2:	mv	s0,a1
   15ea4:	lh	a1,14(a1)
   15ea8:	sw	ra,12(sp)
   15eaa:	jal	ra,195b6 <_read_r>
   15eae:	bltz	a0,15ec0 <__sread+0x22>
   15eb2:	lw	a5,80(s0)
   15eb4:	lw	ra,12(sp)
   15eb6:	add	a5,a5,a0
   15eb8:	sw	a5,80(s0)
   15eba:	lw	s0,8(sp)
   15ebc:	addi	sp,sp,16
   15ebe:	ret
   15ec0:	lhu	a5,12(s0)
   15ec4:	lui	a4,0xfffff
   15ec6:	addi	a4,a4,-1
   15ec8:	and	a5,a5,a4
   15eca:	lw	ra,12(sp)
   15ecc:	sh	a5,12(s0)
   15ed0:	lw	s0,8(sp)
   15ed2:	addi	sp,sp,16
   15ed4:	ret

00015ed6 <__seofread>:
   15ed6:	li	a0,0
   15ed8:	ret

00015eda <__swrite>:
   15eda:	lh	a5,12(a1)
   15ede:	addi	sp,sp,-32
   15ee0:	sw	s0,24(sp)
   15ee2:	sw	s1,20(sp)
   15ee4:	sw	s2,16(sp)
   15ee6:	sw	s3,12(sp)
   15ee8:	sw	ra,28(sp)
   15eea:	andi	a4,a5,256
   15eee:	mv	s0,a1
   15ef0:	mv	s1,a0
   15ef2:	mv	s2,a2
   15ef4:	mv	s3,a3
   15ef6:	bnez	a4,15f1c <__swrite+0x42>
   15ef8:	lui	a4,0xfffff
   15efa:	addi	a4,a4,-1
   15efc:	and	a5,a5,a4
   15efe:	lh	a1,14(s0)
   15f02:	sh	a5,12(s0)
   15f06:	lw	s0,24(sp)
   15f08:	lw	ra,28(sp)
   15f0a:	mv	a3,s3
   15f0c:	mv	a2,s2
   15f0e:	lw	s3,12(sp)
   15f10:	lw	s2,16(sp)
   15f12:	mv	a0,s1
   15f14:	lw	s1,20(sp)
   15f16:	addi	sp,sp,32
   15f18:	j	18b56 <_write_r>
   15f1c:	lh	a1,14(a1)
   15f20:	li	a3,2
   15f22:	li	a2,0
   15f24:	jal	ra,1937c <_lseek_r>
   15f28:	lh	a5,12(s0)
   15f2c:	j	15ef8 <__swrite+0x1e>

00015f2e <__sseek>:
   15f2e:	addi	sp,sp,-16
   15f30:	sw	s0,8(sp)
   15f32:	mv	s0,a1
   15f34:	lh	a1,14(a1)
   15f38:	sw	ra,12(sp)
   15f3a:	jal	ra,1937c <_lseek_r>
   15f3e:	li	a5,-1
   15f40:	beq	a0,a5,15f5a <__sseek+0x2c>
   15f44:	lhu	a5,12(s0)
   15f48:	lui	a4,0x1
   15f4a:	lw	ra,12(sp)
   15f4c:	or	a5,a5,a4
   15f4e:	sw	a0,80(s0)
   15f50:	sh	a5,12(s0)
   15f54:	lw	s0,8(sp)
   15f56:	addi	sp,sp,16
   15f58:	ret
   15f5a:	lhu	a5,12(s0)
   15f5e:	lui	a4,0xfffff
   15f60:	addi	a4,a4,-1
   15f62:	and	a5,a5,a4
   15f64:	lw	ra,12(sp)
   15f66:	sh	a5,12(s0)
   15f6a:	lw	s0,8(sp)
   15f6c:	addi	sp,sp,16
   15f6e:	ret

00015f70 <__sclose>:
   15f70:	lh	a1,14(a1)
   15f74:	j	18ce8 <_close_r>

00015f78 <strcpy>:
   15f78:	or	a5,a0,a1
   15f7c:	andi	a5,a5,3
   15f7e:	bnez	a5,15fda <strcpy+0x62>
   15f80:	lw	a4,0(a1)
   15f82:	lui	a3,0x7f7f8
   15f86:	addi	a3,a3,-129 # 7f7f7f7f <__BSS_END__+0x7f7d8547>
   15f8a:	and	a5,a4,a3
   15f8e:	add	a5,a5,a3
   15f90:	or	a5,a5,a4
   15f92:	or	a5,a5,a3
   15f94:	li	a2,-1
   15f96:	bne	a5,a2,15fec <strcpy+0x74>
   15f9a:	mv	a2,a0
   15f9c:	li	a6,-1
   15f9e:	sw	a4,0(a2)
   15fa0:	lw	a4,4(a1)
   15fa2:	addi	a1,a1,4
   15fa4:	addi	a2,a2,4
   15fa6:	and	a5,a4,a3
   15faa:	add	a5,a5,a3
   15fac:	or	a5,a5,a4
   15fae:	or	a5,a5,a3
   15fb0:	beq	a5,a6,15f9e <strcpy+0x26>
   15fb4:	lbu	a5,0(a1)
   15fb8:	lbu	a4,1(a1)
   15fbc:	lbu	a3,2(a1)
   15fc0:	sb	a5,0(a2) # 80000000 <__BSS_END__+0x7ffe05c8>
   15fc4:	beqz	a5,15fd2 <strcpy+0x5a>
   15fc6:	sb	a4,1(a2)
   15fca:	beqz	a4,15fd2 <strcpy+0x5a>
   15fcc:	sb	a3,2(a2)
   15fd0:	bnez	a3,15fd4 <strcpy+0x5c>
   15fd2:	ret
   15fd4:	sb	zero,3(a2)
   15fd8:	ret
   15fda:	mv	a5,a0
   15fdc:	lbu	a4,0(a1)
   15fe0:	addi	a5,a5,1
   15fe2:	addi	a1,a1,1
   15fe4:	sb	a4,-1(a5)
   15fe8:	bnez	a4,15fdc <strcpy+0x64>
   15fea:	ret
   15fec:	mv	a2,a0
   15fee:	j	15fb4 <strcpy+0x3c>

00015ff0 <strlen>:
   15ff0:	andi	a5,a0,3
   15ff4:	mv	a4,a0
   15ff6:	bnez	a5,16034 <strlen+0x44>
   15ff8:	lui	a3,0x7f7f8
   15ffc:	addi	a3,a3,-129 # 7f7f7f7f <__BSS_END__+0x7f7d8547>
   16000:	li	a1,-1
   16002:	lw	a2,0(a4)
   16004:	addi	a4,a4,4
   16006:	and	a5,a2,a3
   1600a:	add	a5,a5,a3
   1600c:	or	a5,a5,a2
   1600e:	or	a5,a5,a3
   16010:	beq	a5,a1,16002 <strlen+0x12>
   16014:	lbu	a3,-4(a4) # ffffeffc <__BSS_END__+0xfffdf5c4>
   16018:	sub	a5,a4,a0
   1601c:	beqz	a3,1604e <strlen+0x5e>
   1601e:	lbu	a3,-3(a4)
   16022:	beqz	a3,16048 <strlen+0x58>
   16024:	lbu	a0,-2(a4)
   16028:	snez	a0,a0
   1602c:	add	a0,a0,a5
   1602e:	addi	a0,a0,-2
   16030:	ret
   16032:	beqz	a3,15ff8 <strlen+0x8>
   16034:	lbu	a5,0(a4)
   16038:	addi	a4,a4,1
   1603a:	andi	a3,a4,3
   1603e:	bnez	a5,16032 <strlen+0x42>
   16040:	sub	a4,a4,a0
   16042:	addi	a0,a4,-1
   16046:	ret
   16048:	addi	a0,a5,-3
   1604c:	ret
   1604e:	addi	a0,a5,-4
   16052:	ret

00016054 <strncpy>:
   16054:	or	a5,a0,a1
   16058:	andi	a5,a5,3
   1605a:	mv	a4,a0
   1605c:	bnez	a5,160b0 <strncpy+0x5c>
   1605e:	li	a5,3
   16060:	bgeu	a5,a2,160b0 <strncpy+0x5c>
   16064:	lui	t1,0xfeff0
   16068:	lui	a7,0x80808
   1606c:	addi	t1,t1,-257 # fefefeff <__BSS_END__+0xfefd04c7>
   16070:	addi	a7,a7,128 # 80808080 <__BSS_END__+0x807e8648>
   16074:	li	t3,3
   16076:	lw	a3,0(a1)
   16078:	add	a5,a3,t1
   1607c:	not	a6,a3
   16080:	and	a5,a5,a6
   16084:	and	a5,a5,a7
   16088:	bnez	a5,160b0 <strncpy+0x5c>
   1608a:	sw	a3,0(a4)
   1608c:	addi	a2,a2,-4
   1608e:	addi	a4,a4,4
   16090:	addi	a1,a1,4
   16092:	bltu	t3,a2,16076 <strncpy+0x22>
   16096:	addi	a1,a1,1
   16098:	addi	a5,a4,1
   1609c:	beqz	a2,160b8 <strncpy+0x64>
   1609e:	lbu	a3,-1(a1)
   160a2:	addi	a6,a2,-1
   160a6:	sb	a3,-1(a5)
   160aa:	beqz	a3,160ba <strncpy+0x66>
   160ac:	mv	a4,a5
   160ae:	mv	a2,a6
   160b0:	addi	a1,a1,1
   160b2:	addi	a5,a4,1
   160b6:	bnez	a2,1609e <strncpy+0x4a>
   160b8:	ret
   160ba:	add	a4,a4,a2
   160bc:	beqz	a6,160cc <strncpy+0x78>
   160c0:	addi	a5,a5,1
   160c2:	sb	zero,-1(a5)
   160c6:	bne	a5,a4,160c0 <strncpy+0x6c>
   160ca:	ret
   160cc:	ret

000160ce <_svfprintf_r>:
   160ce:	addi	sp,sp,-496
   160d0:	sw	ra,492(sp)
   160d4:	sw	s4,472(sp)
   160d8:	sw	s5,468(sp)
   160dc:	sw	s10,448(sp)
   160e0:	mv	s5,a1
   160e2:	mv	s10,a2
   160e4:	sw	a3,12(sp)
   160e6:	sw	s0,488(sp)
   160ea:	sw	s1,484(sp)
   160ee:	sw	s2,480(sp)
   160f2:	sw	s3,476(sp)
   160f6:	sw	s6,464(sp)
   160fa:	sw	s7,460(sp)
   160fe:	sw	s8,456(sp)
   16102:	sw	s9,452(sp)
   16106:	sw	s11,444(sp)
   1610a:	mv	s4,a0
   1610c:	jal	ra,149c6 <_localeconv_r>
   16110:	lw	a5,0(a0)
   16112:	mv	a0,a5
   16114:	sw	a5,64(sp)
   16116:	jal	15ff0 <strlen>
   16118:	lhu	a4,12(s5)
   1611c:	sw	zero,240(sp)
   1611e:	sw	zero,244(sp)
   16120:	sw	zero,248(sp)
   16122:	sw	zero,252(sp)
   16124:	andi	a4,a4,128
   16128:	sw	a0,60(sp)
   1612a:	beqz	a4,16134 <_svfprintf_r+0x66>
   1612c:	lw	a4,16(s5)
   16130:	beqz	a4,16e9e <_svfprintf_r+0xdd0>
   16134:	lui	a4,0x1e
   16136:	addi	a5,a4,-176 # 1df50 <__mprec_bigtens+0x28>
   1613a:	lbu	a4,0(s10) # fffff000 <__BSS_END__+0xfffdf5c8>
   1613e:	addi	s6,sp,268
   16142:	lui	s2,0x1e
   16144:	sw	s6,228(sp)
   16146:	sw	zero,236(sp)
   16148:	sw	zero,232(sp)
   1614a:	sw	zero,16(sp)
   1614c:	sw	zero,24(sp)
   1614e:	sw	zero,68(sp)
   16150:	sw	zero,56(sp)
   16152:	sw	zero,72(sp)
   16154:	sw	zero,76(sp)
   16156:	sw	zero,4(sp)
   16158:	sw	a5,20(sp)
   1615a:	mv	a7,s6
   1615c:	addi	s2,s2,356 # 1e164 <zeroes.0>
   16160:	beqz	a4,162ea <_svfprintf_r+0x21c>
   16164:	mv	s0,s10
   16166:	li	a3,37
   1616a:	beq	a4,a3,16442 <_svfprintf_r+0x374>
   1616e:	lbu	a4,1(s0)
   16172:	addi	s0,s0,1
   16174:	bnez	a4,1616a <_svfprintf_r+0x9c>
   16176:	sub	s1,s0,s10
   1617a:	beq	s0,s10,162ea <_svfprintf_r+0x21c>
   1617e:	lw	a3,236(sp)
   16180:	lw	a4,232(sp)
   16182:	sw	s10,0(a7)
   16186:	add	a3,a3,s1
   16188:	addi	a4,a4,1
   1618a:	sw	s1,4(a7)
   1618e:	sw	a3,236(sp)
   16190:	sw	a4,232(sp)
   16192:	li	a3,7
   16194:	addi	a7,a7,8
   16196:	blt	a3,a4,16450 <_svfprintf_r+0x382>
   1619a:	lw	a5,4(sp)
   1619c:	lbu	a4,0(s0)
   161a0:	add	a5,a5,s1
   161a2:	sw	a5,4(sp)
   161a4:	beqz	a4,162ea <_svfprintf_r+0x21c>
   161a8:	lbu	t3,1(s0)
   161ac:	sb	zero,199(sp)
   161b0:	addi	s0,s0,1
   161b2:	li	t1,-1
   161b4:	li	s3,0
   161b6:	li	s1,0
   161b8:	li	s7,90
   161bc:	li	s9,9
   161be:	li	s11,42
   161c2:	addi	s0,s0,1
   161c4:	mv	s8,t3
   161c6:	addi	a4,s8,-32
   161ca:	bltu	s7,a4,16200 <_svfprintf_r+0x132>
   161ce:	lw	a5,20(sp)
   161d0:	slli	a4,a4,0x2
   161d2:	add	a4,a4,a5
   161d4:	lw	a4,0(a4)
   161d6:	jr	a4
   161d8:	li	s3,0
   161da:	addi	a4,s8,-48
   161de:	lbu	s8,0(s0)
   161e2:	slli	a3,s3,0x2
   161e6:	add	a3,a3,s3
   161e8:	slli	a3,a3,0x1
   161ea:	add	s3,a4,a3
   161ee:	addi	a4,s8,-48
   161f2:	addi	s0,s0,1
   161f4:	bgeu	s9,a4,161de <_svfprintf_r+0x110>
   161f8:	addi	a4,s8,-32
   161fc:	bgeu	s7,a4,161ce <_svfprintf_r+0x100>
   16200:	beqz	s8,162ea <_svfprintf_r+0x21c>
   16204:	sb	s8,332(sp)
   16208:	sb	zero,199(sp)
   1620c:	li	s7,1
   1620e:	li	s9,1
   16210:	addi	s10,sp,332
   16214:	li	s11,0
   16216:	li	t1,0
   16218:	sw	zero,48(sp)
   1621a:	sw	zero,52(sp)
   1621c:	sw	zero,44(sp)
   1621e:	andi	t0,s1,2
   16222:	beqz	t0,16228 <_svfprintf_r+0x15a>
   16226:	addi	s7,s7,2
   16228:	andi	t6,s1,132
   1622c:	lw	a4,236(sp)
   1622e:	bnez	t6,1623a <_svfprintf_r+0x16c>
   16232:	sub	a6,s3,s7
   16236:	bgtz	a6,16afa <_svfprintf_r+0xa2c>
   1623a:	lbu	a3,199(sp)
   1623e:	beqz	a3,16260 <_svfprintf_r+0x192>
   16240:	lw	a3,232(sp)
   16242:	addi	a2,sp,199
   16246:	sw	a2,0(a7)
   1624a:	addi	a4,a4,1
   1624c:	li	a2,1
   1624e:	addi	a3,a3,1
   16250:	sw	a2,4(a7)
   16254:	sw	a4,236(sp)
   16256:	sw	a3,232(sp)
   16258:	li	a2,7
   1625a:	addi	a7,a7,8
   1625c:	blt	a2,a3,16504 <_svfprintf_r+0x436>
   16260:	beqz	t0,16282 <_svfprintf_r+0x1b4>
   16264:	lw	a3,232(sp)
   16266:	addi	a2,sp,200
   16268:	sw	a2,0(a7)
   1626c:	addi	a4,a4,2
   1626e:	li	a2,2
   16270:	addi	a3,a3,1
   16272:	sw	a2,4(a7)
   16276:	sw	a4,236(sp)
   16278:	sw	a3,232(sp)
   1627a:	li	a2,7
   1627c:	addi	a7,a7,8
   1627e:	blt	a2,a3,16b92 <_svfprintf_r+0xac4>
   16282:	li	a3,128
   16286:	beq	t6,a3,169d8 <_svfprintf_r+0x90a>
   1628a:	sub	t1,t1,s9
   1628e:	bgtz	t1,16a62 <_svfprintf_r+0x994>
   16292:	andi	a3,s1,256
   16296:	bnez	a3,16912 <_svfprintf_r+0x844>
   1629a:	lw	a5,232(sp)
   1629c:	add	a4,a4,s9
   1629e:	sw	s10,0(a7)
   162a2:	addi	a5,a5,1
   162a4:	sw	s9,4(a7)
   162a8:	sw	a4,236(sp)
   162aa:	sw	a5,232(sp)
   162ac:	li	a3,7
   162ae:	blt	a3,a5,165ce <_svfprintf_r+0x500>
   162b2:	addi	a7,a7,8
   162b4:	andi	s1,s1,4
   162b6:	beqz	s1,162c0 <_svfprintf_r+0x1f2>
   162b8:	sub	s1,s3,s7
   162bc:	bgtz	s1,165e2 <_svfprintf_r+0x514>
   162c0:	bge	s3,s7,162c6 <_svfprintf_r+0x1f8>
   162c4:	mv	s3,s7
   162c6:	lw	a5,4(sp)
   162c8:	add	a5,a5,s3
   162ca:	sw	a5,4(sp)
   162cc:	bnez	a4,16ad8 <_svfprintf_r+0xa0a>
   162d0:	sw	zero,232(sp)
   162d2:	beqz	s11,162de <_svfprintf_r+0x210>
   162d6:	mv	a1,s11
   162d8:	mv	a0,s4
   162da:	jal	ra,12706 <_free_r>
   162de:	mv	a7,s6
   162e0:	mv	s10,s0
   162e2:	lbu	a4,0(s10)
   162e6:	bnez	a4,16164 <_svfprintf_r+0x96>
   162ea:	lw	a5,236(sp)
   162ec:	beqz	a5,162f2 <_svfprintf_r+0x224>
   162ee:	j	17688 <_svfprintf_r+0x15ba>
   162f2:	lhu	a5,12(s5)
   162f6:	andi	a5,a5,64
   162fa:	beqz	a5,16300 <_svfprintf_r+0x232>
   162fc:	j	17b18 <_svfprintf_r+0x1a4a>
   16300:	lw	ra,492(sp)
   16304:	lw	s0,488(sp)
   16308:	lw	a0,4(sp)
   1630a:	lw	s1,484(sp)
   1630e:	lw	s2,480(sp)
   16312:	lw	s3,476(sp)
   16316:	lw	s4,472(sp)
   1631a:	lw	s5,468(sp)
   1631e:	lw	s6,464(sp)
   16322:	lw	s7,460(sp)
   16326:	lw	s8,456(sp)
   1632a:	lw	s9,452(sp)
   1632e:	lw	s10,448(sp)
   16332:	lw	s11,444(sp)
   16336:	addi	sp,sp,496
   16338:	ret
   1633a:	mv	a0,s4
   1633c:	sw	a7,28(sp)
   1633e:	sw	t1,8(sp)
   16340:	jal	ra,149c6 <_localeconv_r>
   16344:	lw	a5,4(a0)
   16346:	mv	a0,a5
   16348:	sw	a5,76(sp)
   1634a:	jal	ra,15ff0 <strlen>
   1634e:	mv	a4,a0
   16350:	mv	a0,s4
   16352:	mv	s8,a4
   16354:	sw	a4,72(sp)
   16356:	jal	ra,149c6 <_localeconv_r>
   1635a:	lw	a5,8(a0)
   1635c:	lw	t1,8(sp)
   1635e:	lw	a7,28(sp)
   16360:	sw	a5,56(sp)
   16362:	bnez	s8,16de2 <_svfprintf_r+0xd14>
   16366:	lbu	t3,0(s0)
   1636a:	j	161c2 <_svfprintf_r+0xf4>
   1636c:	lbu	t3,0(s0)
   16370:	ori	s1,s1,32
   16374:	j	161c2 <_svfprintf_r+0xf4>
   16376:	ori	s1,s1,16
   1637a:	andi	a5,s1,32
   1637e:	beqz	a5,16680 <_svfprintf_r+0x5b2>
   16382:	lw	a5,12(sp)
   16384:	addi	a5,a5,7
   16386:	andi	a4,a5,-8
   1638a:	lw	a5,4(a4)
   1638c:	lw	s7,0(a4)
   16390:	addi	a4,a4,8
   16392:	sw	a4,12(sp)
   16394:	mv	s9,a5
   16396:	bltz	a5,166aa <_svfprintf_r+0x5dc>
   1639a:	li	a5,-1
   1639c:	mv	a4,s1
   1639e:	beq	t1,a5,163ae <_svfprintf_r+0x2e0>
   163a2:	or	a5,s7,s9
   163a6:	andi	a4,s1,-129
   163aa:	beqz	a5,16cb0 <_svfprintf_r+0xbe2>
   163ae:	bnez	s9,1706a <_svfprintf_r+0xf9c>
   163b2:	li	a5,9
   163b4:	bltu	a5,s7,1706a <_svfprintf_r+0xf9c>
   163b8:	addi	s7,s7,48
   163bc:	sb	s7,431(sp)
   163c0:	mv	s1,a4
   163c2:	li	s9,1
   163c4:	addi	s10,sp,431
   163c8:	lbu	a4,199(sp)
   163cc:	mv	s7,t1
   163ce:	bge	t1,s9,163d4 <_svfprintf_r+0x306>
   163d2:	mv	s7,s9
   163d4:	sw	zero,48(sp)
   163d6:	sw	zero,52(sp)
   163d8:	sw	zero,44(sp)
   163da:	li	s11,0
   163dc:	beqz	a4,1621e <_svfprintf_r+0x150>
   163e0:	addi	s7,s7,1
   163e2:	j	1621e <_svfprintf_r+0x150>
   163e4:	ori	s1,s1,16
   163e8:	andi	a5,s1,32
   163ec:	beqz	a5,1665c <_svfprintf_r+0x58e>
   163f0:	lw	a5,12(sp)
   163f2:	addi	a5,a5,7
   163f4:	andi	a5,a5,-8
   163f6:	lw	s7,0(a5)
   163fa:	lw	s9,4(a5)
   163fe:	addi	a5,a5,8
   16400:	sw	a5,12(sp)
   16402:	andi	a4,s1,-1025
   16406:	li	a5,0
   16408:	li	a3,0
   1640a:	sb	a3,199(sp)
   1640e:	li	a3,-1
   16410:	beq	t1,a3,166cc <_svfprintf_r+0x5fe>
   16414:	or	a3,s7,s9
   16418:	andi	s1,a4,-129
   1641c:	bnez	a3,16af6 <_svfprintf_r+0xa28>
   16420:	bnez	t1,172a6 <_svfprintf_r+0x11d8>
   16424:	bnez	a5,16cb6 <_svfprintf_r+0xbe8>
   16428:	andi	s9,a4,1
   1642c:	addi	s10,sp,432
   16430:	beqz	s9,163c8 <_svfprintf_r+0x2fa>
   16434:	li	a5,48
   16438:	sb	a5,431(sp)
   1643c:	addi	s10,sp,431
   16440:	j	163c8 <_svfprintf_r+0x2fa>
   16442:	sub	s1,s0,s10
   16446:	bne	s0,s10,1617e <_svfprintf_r+0xb0>
   1644a:	lbu	a4,0(s0)
   1644e:	j	161a4 <_svfprintf_r+0xd6>
   16450:	addi	a2,sp,228
   16452:	mv	a1,s5
   16454:	mv	a0,s4
   16456:	jal	ra,19be0 <__ssprint_r>
   1645a:	bnez	a0,162f2 <_svfprintf_r+0x224>
   1645e:	mv	a7,s6
   16460:	j	1619a <_svfprintf_r+0xcc>
   16462:	andi	a4,s1,8
   16466:	bnez	a4,16dfc <_svfprintf_r+0xd2e>
   1646a:	lw	a5,12(sp)
   1646c:	addi	a0,sp,176
   1646e:	sw	a7,28(sp)
   16470:	addi	a5,a5,7
   16472:	andi	a5,a5,-8
   16474:	fld	fa0,0(a5)
   16476:	addi	a5,a5,8
   16478:	sw	t1,8(sp)
   1647a:	sw	a5,12(sp)
   1647c:	jal	ra,1d326 <__extenddftf2>
   16480:	lw	a1,176(sp)
   16482:	lw	a2,180(sp)
   16484:	lw	a3,184(sp)
   16486:	lw	a4,188(sp)
   16488:	lw	a7,28(sp)
   1648a:	lw	t1,8(sp)
   1648c:	addi	a0,sp,240
   1648e:	sw	a7,28(sp)
   16490:	sw	t1,8(sp)
   16492:	sw	a4,252(sp)
   16494:	sw	a1,240(sp)
   16496:	sw	a2,244(sp)
   16498:	sw	a3,248(sp)
   1649a:	jal	ra,14976 <_ldcheck>
   1649e:	sw	a0,204(sp)
   164a0:	li	a4,2
   164a2:	lw	t1,8(sp)
   164a4:	lw	a7,28(sp)
   164a6:	beq	a0,a4,172b8 <_svfprintf_r+0x11ea>
   164aa:	li	a4,1
   164ac:	bne	a0,a4,164b4 <_svfprintf_r+0x3e6>
   164b0:	j	175c6 <_svfprintf_r+0x14f8>
   164b4:	li	a4,97
   164b8:	beq	s8,a4,173a4 <_svfprintf_r+0x12d6>
   164bc:	li	a4,65
   164c0:	li	a5,88
   164c4:	beq	s8,a4,173a8 <_svfprintf_r+0x12da>
   164c8:	andi	a5,s8,-33
   164cc:	li	a4,-1
   164ce:	sw	a5,100(sp)
   164d0:	bne	t1,a4,164d8 <_svfprintf_r+0x40a>
   164d4:	j	176dc <_svfprintf_r+0x160e>
   164d8:	li	a4,71
   164dc:	bne	a5,a4,164e4 <_svfprintf_r+0x416>
   164e0:	j	17afe <_svfprintf_r+0x1a30>
   164e4:	lw	t4,252(sp)
   164e6:	sw	s1,104(sp)
   164e8:	lw	t5,240(sp)
   164ea:	lw	t6,244(sp)
   164ec:	lw	t0,248(sp)
   164ee:	ori	a4,s1,256
   164f2:	bgez	t4,164fa <_svfprintf_r+0x42c>
   164f6:	j	175b2 <_svfprintf_r+0x14e4>
   164fa:	sw	zero,124(sp)
   164fc:	mv	s1,a4
   164fe:	li	s11,0
   16500:	j	173e8 <_svfprintf_r+0x131a>
   16504:	addi	a2,sp,228
   16506:	mv	a1,s5
   16508:	mv	a0,s4
   1650a:	sw	t1,32(sp)
   1650c:	sw	t6,28(sp)
   1650e:	sw	t0,8(sp)
   16510:	jal	ra,19be0 <__ssprint_r>
   16514:	bnez	a0,16ae6 <_svfprintf_r+0xa18>
   16518:	lw	a4,236(sp)
   1651a:	lw	t1,32(sp)
   1651c:	lw	t6,28(sp)
   1651e:	lw	t0,8(sp)
   16520:	mv	a7,s6
   16522:	j	16260 <_svfprintf_r+0x192>
   16524:	lw	s9,232(sp)
   16526:	lw	a5,16(sp)
   16528:	li	a3,1
   1652a:	sw	s10,0(a7)
   1652e:	addi	a4,a4,1
   16530:	addi	s9,s9,1
   16532:	addi	s8,a7,8
   16536:	bge	a3,a5,16cc2 <_svfprintf_r+0xbf4>
   1653a:	li	a3,1
   1653c:	sw	a3,4(a7)
   16540:	sw	a4,236(sp)
   16542:	sw	s9,232(sp)
   16544:	li	a3,7
   16546:	blt	a3,s9,16d6a <_svfprintf_r+0xc9c>
   1654a:	lw	a5,60(sp)
   1654c:	lw	a3,64(sp)
   1654e:	addi	s9,s9,1
   16550:	add	a4,a4,a5
   16552:	sw	a3,0(s8)
   16556:	sw	a5,4(s8)
   1655a:	sw	a4,236(sp)
   1655c:	sw	s9,232(sp)
   1655e:	li	a3,7
   16560:	addi	s8,s8,8
   16562:	blt	a3,s9,16d82 <_svfprintf_r+0xcb4>
   16566:	lw	a3,240(sp)
   16568:	addi	a1,sp,160
   1656a:	addi	a0,sp,176
   1656c:	sw	a3,176(sp)
   1656e:	lw	a3,244(sp)
   16570:	sw	a4,8(sp)
   16572:	sw	zero,160(sp)
   16574:	sw	a3,180(sp)
   16576:	lw	a3,248(sp)
   16578:	sw	zero,164(sp)
   1657a:	sw	zero,168(sp)
   1657c:	sw	a3,184(sp)
   1657e:	lw	a3,252(sp)
   16580:	sw	zero,172(sp)
   16582:	sw	a3,188(sp)
   16584:	jal	ra,1afec <__eqtf2>
   16588:	lw	a5,16(sp)
   1658a:	lw	a4,8(sp)
   1658c:	addi	a3,a5,-1
   16590:	beqz	a0,16cee <_svfprintf_r+0xc20>
   16594:	addi	a5,s10,1
   16598:	addi	s9,s9,1
   1659a:	add	a4,a4,a3
   1659c:	sw	a5,0(s8)
   165a0:	sw	a3,4(s8)
   165a4:	sw	a4,236(sp)
   165a6:	sw	s9,232(sp)
   165a8:	li	a5,7
   165aa:	addi	s8,s8,8
   165ac:	blt	a5,s9,16cd8 <_svfprintf_r+0xc0a>
   165b0:	lw	a3,68(sp)
   165b2:	addi	a5,sp,212
   165b4:	addi	s9,s9,1
   165b6:	add	a4,a4,a3
   165b8:	sw	a5,0(s8)
   165bc:	sw	a3,4(s8)
   165c0:	sw	a4,236(sp)
   165c2:	sw	s9,232(sp)
   165c4:	li	a5,7
   165c6:	addi	a7,s8,8
   165ca:	bge	a5,s9,162b4 <_svfprintf_r+0x1e6>
   165ce:	addi	a2,sp,228
   165d0:	mv	a1,s5
   165d2:	mv	a0,s4
   165d4:	jal	ra,19be0 <__ssprint_r>
   165d8:	bnez	a0,16ae6 <_svfprintf_r+0xa18>
   165dc:	lw	a4,236(sp)
   165de:	mv	a7,s6
   165e0:	j	162b4 <_svfprintf_r+0x1e6>
   165e2:	li	a3,16
   165e4:	lw	a5,232(sp)
   165e6:	blt	a3,s1,165ee <_svfprintf_r+0x520>
   165ea:	j	17a48 <_svfprintf_r+0x197a>
   165ee:	lui	a3,0x1e
   165f0:	addi	t4,a3,340 # 1e154 <blanks.1>
   165f4:	li	s9,16
   165f6:	li	s8,7
   165f8:	j	16600 <_svfprintf_r+0x532>
   165fa:	addi	s1,s1,-16
   165fc:	bge	s9,s1,16634 <_svfprintf_r+0x566>
   16600:	addi	a4,a4,16
   16602:	addi	a5,a5,1
   16604:	sw	t4,0(a7)
   16608:	sw	s9,4(a7)
   1660c:	sw	a4,236(sp)
   1660e:	sw	a5,232(sp)
   16610:	addi	a7,a7,8
   16612:	bge	s8,a5,165fa <_svfprintf_r+0x52c>
   16616:	addi	a2,sp,228
   16618:	mv	a1,s5
   1661a:	mv	a0,s4
   1661c:	sw	t4,8(sp)
   1661e:	jal	ra,19be0 <__ssprint_r>
   16622:	bnez	a0,16ae6 <_svfprintf_r+0xa18>
   16626:	addi	s1,s1,-16
   16628:	lw	a4,236(sp)
   1662a:	lw	a5,232(sp)
   1662c:	lw	t4,8(sp)
   1662e:	mv	a7,s6
   16630:	blt	s9,s1,16600 <_svfprintf_r+0x532>
   16634:	add	a4,a4,s1
   16636:	addi	a5,a5,1
   16638:	sw	t4,0(a7)
   1663c:	sw	s1,4(a7)
   16640:	sw	a4,236(sp)
   16642:	sw	a5,232(sp)
   16644:	li	a3,7
   16646:	bge	a3,a5,162c0 <_svfprintf_r+0x1f2>
   1664a:	addi	a2,sp,228
   1664c:	mv	a1,s5
   1664e:	mv	a0,s4
   16650:	jal	ra,19be0 <__ssprint_r>
   16654:	bnez	a0,16ae6 <_svfprintf_r+0xa18>
   16658:	lw	a4,236(sp)
   1665a:	j	162c0 <_svfprintf_r+0x1f2>
   1665c:	lw	a4,12(sp)
   1665e:	andi	a5,s1,16
   16662:	lw	s7,0(a4)
   16666:	addi	a4,a4,4
   16668:	sw	a4,12(sp)
   1666a:	bnez	a5,16db6 <_svfprintf_r+0xce8>
   1666e:	andi	a5,s1,64
   16672:	beqz	a5,16dae <_svfprintf_r+0xce0>
   16676:	slli	s7,s7,0x10
   16678:	srli	s7,s7,0x10
   1667c:	li	s9,0
   1667e:	j	16402 <_svfprintf_r+0x334>
   16680:	lw	a4,12(sp)
   16682:	andi	a5,s1,16
   16686:	lw	s7,0(a4)
   1668a:	addi	a4,a4,4
   1668c:	sw	a4,12(sp)
   1668e:	bnez	a5,16dc4 <_svfprintf_r+0xcf6>
   16692:	andi	a5,s1,64
   16696:	beqz	a5,16dbc <_svfprintf_r+0xcee>
   1669a:	slli	s7,s7,0x10
   1669c:	srai	s7,s7,0x10
   166a0:	srai	s9,s7,0x1f
   166a4:	mv	a5,s9
   166a6:	bgez	a5,1639a <_svfprintf_r+0x2cc>
   166aa:	li	a3,45
   166ae:	snez	a5,s7
   166b2:	neg	s9,s9
   166b6:	sb	a3,199(sp)
   166ba:	li	a3,-1
   166bc:	sub	s9,s9,a5
   166c0:	neg	s7,s7
   166c4:	mv	a4,s1
   166c6:	li	a5,1
   166c8:	bne	t1,a3,16414 <_svfprintf_r+0x346>
   166cc:	li	a3,1
   166ce:	beq	a5,a3,163ae <_svfprintf_r+0x2e0>
   166d2:	li	a3,2
   166d4:	beq	a5,a3,168dc <_svfprintf_r+0x80e>
   166d8:	addi	s10,sp,432
